(lp0
(dp1
S'False_Color_1'
p2
S'green'
p3
sS'IMAGE_1'
p4
S'Target_A_dots_red_triangle_below_.png'
p5
sS'False_Color_2'
p6
g3
sS'GROUP'
p7
(lp8
S'A'
p9
aS'B'
p10
asS'S2'
p11
S'The dots are green.'
p12
sS'S1'
p13
S'The dots are red.'
p14
sS'PREDICATE_TYPE'
p15
S'Baseline'
p16
sS'TRUTH_VALUE_2'
p17
S'False'
p18
sS'PREDICATE_1'
p19
S'are'
p20
sS'PREDICATE_2'
p21
g20
sS'SHAPE'
p22
S'dots'
p23
sS'TRUTH_VALUE_1'
p24
S'True'
p25
sS'Color_2'
p26
S'red'
p27
sS'Color_1'
p28
g27
sS'IMAGE_2'
p29
S'Target_A_dots_red_square_below_.png'
p30
sS'IMAGE_TYPE'
p31
g9
sS'STUDY'
p32
S'2'
p33
sS'N1'
p34
S'4-8'
p35
sS'N2'
p36
S'5-9'
p37
sS'KEY_PRED_2'
p38
S'below'
p39
sS'KEY_PRED_1'
p40
g39
sS'CONDITION'
p41
S'Target1'
p42
sa(dp43
g2
S'blue'
p44
sg4
S'Target_A_dots_red_triangle_above_.png'
p45
sg6
g27
sg7
g8
sg11
S'The dots are red.'
p46
sg13
S'The dots are red.'
p47
sg15
g16
sg17
g18
sg19
g20
sg21
g20
sg22
g23
sg24
g25
sg26
g3
sg28
g27
sg29
S'Target_A_dots_green_square_below_.png'
p48
sg31
g9
sg32
g33
sg34
g35
sg36
g37
sg38
g39
sg40
S'above'
p49
sg41
g42
sa(dp50
g2
g44
sg19
S'X'
p51
sg6
g27
sg7
g8
sg4
S'Target_B_dots_red_.png'
p52
sg31
g10
sg11
S'All letters are red.'
p53
sg32
g33
sg24
g25
sg13
S'All letters are red.'
p54
sg15
g16
sg22
g23
sg21
g51
sg17
g18
sg41
S'Filler-Target1'
p55
sg29
S'Target_B_dots_green_.png'
p56
sg34
S'X-X'
p57
sg36
g57
sg26
g3
sg28
g27
sa(dp58
g2
g27
sg4
S'Target_A_dots_blue_triangle_below_.png'
p59
sg6
g3
sg7
g8
sg11
S'The dots are green.'
p60
sg13
S'The dots are blue.'
p61
sg15
g16
sg17
g18
sg19
g20
sg21
g20
sg22
g23
sg24
g25
sg26
g27
sg28
g44
sg29
S'Target_A_dots_red_square_below_.png'
p62
sg31
g9
sg32
g33
sg34
g35
sg36
g37
sg38
g39
sg40
g39
sg41
g42
sa(dp63
g2
g3
sg4
S'Target_A_dots_blue_triangle_below_.png'
p64
sg6
g27
sg7
g8
sg11
S'The dots are red.'
p65
sg13
S'The dots are blue.'
p66
sg15
g16
sg17
g18
sg19
g20
sg21
g20
sg22
g23
sg24
g25
sg26
g3
sg28
g44
sg29
S'Target_A_dots_green_square_below_.png'
p67
sg31
g9
sg32
g33
sg34
g35
sg36
g37
sg38
g39
sg40
g39
sg41
g42
sa(dp68
g2
g3
sg4
S'Target_A_dots_blue_triangle_above_.png'
p69
sg6
g27
sg7
g8
sg11
S'All dots are green.'
p70
sg13
S'All dots are blue.'
p71
sg15
g16
sg17
g25
sg19
g51
sg21
g51
sg22
g23
sg24
g25
sg26
g3
sg41
S'Filler-Target1'
p72
sg29
S'Target_A_dots_green_square_below_.png'
p73
sg31
g9
sg32
g33
sg34
g57
sg36
g57
sg38
g39
sg40
g49
sg28
g44
sa(dp74
g2
g27
sg4
S'Target_A_crosses_green_triangle_below_.png'
p75
sg6
g27
sg7
g8
sg11
S'The crosses are red.'
p76
sg13
S'The crosses are green.'
p77
sg15
g16
sg17
g18
sg19
g20
sg21
g20
sg22
S'crosses'
p78
sg24
g25
sg26
g44
sg28
g3
sg29
S'Target_A_crosses_blue_square_below_.png'
p79
sg31
g9
sg32
g33
sg34
g35
sg36
g37
sg38
g39
sg40
g39
sg41
g42
sa(dp80
g2
g3
sg4
S'Target_A_crosses_red_triangle_above_.png'
p81
sg6
g3
sg7
g8
sg11
S'The crosses are green.'
p82
sg13
S'The crosses are red.'
p83
sg15
g16
sg17
g18
sg19
g20
sg21
g20
sg22
g78
sg24
g25
sg26
g44
sg28
g27
sg29
S'Target_A_crosses_blue_square_above_.png'
p84
sg31
g9
sg32
g33
sg34
g35
sg36
g37
sg38
g49
sg40
g49
sg41
g42
sa(dp85
g2
g3
sg4
S'Target_A_crosses_red_triangle_below_.png'
p86
sg6
g3
sg7
g8
sg11
S'All crosses are green.'
p87
sg13
S'All crosses are green.'
p88
sg15
g16
sg17
g18
sg19
g51
sg21
g51
sg22
g78
sg24
g18
sg26
g44
sg41
S'Filler-Target1'
p89
sg29
S'Target_A_crosses_blue_square_below_.png'
p90
sg31
g9
sg32
g33
sg34
g57
sg36
g57
sg38
g39
sg40
g39
sg28
g27
sa(dp91
g2
g3
sg4
S'Target_A_crosses_blue_triangle_above_.png'
p92
sg6
g27
sg7
g8
sg11
S'The crosses are red.'
p93
sg13
S'The crosses are blue.'
p94
sg15
g16
sg17
g18
sg19
g20
sg21
g20
sg22
g78
sg24
g25
sg26
g44
sg28
g44
sg29
S'Target_A_crosses_blue_square_above_.png'
p95
sg31
g9
sg32
g33
sg34
g35
sg36
g37
sg38
g49
sg40
g49
sg41
g42
sa(dp96
g2
g27
sg4
S'Target_A_crosses_green_triangle_below_.png'
p97
sg6
g3
sg7
g8
sg11
S'The crosses are green.'
p98
sg13
S'The crosses are green.'
p99
sg15
g16
sg17
g18
sg19
g20
sg21
g20
sg22
g78
sg24
g25
sg26
g27
sg28
g3
sg29
S'Target_A_crosses_red_square_above_.png'
p100
sg31
g9
sg32
g33
sg34
g35
sg36
g37
sg38
g49
sg40
g39
sg41
g42
sa(dp101
g2
g27
sg19
g51
sg6
g3
sg7
g8
sg4
S'Target_B_crosses_green_.png'
p102
sg31
g10
sg11
S'All letters are red.'
p103
sg32
g33
sg24
g18
sg13
S'All letters are red.'
p104
sg15
g16
sg22
g78
sg21
g51
sg17
g25
sg41
S'Filler-Target1'
p105
sg29
S'Target_B_crosses_red_.png'
p106
sg34
g57
sg36
g57
sg26
g27
sg28
g3
sa(dp107
g2
g27
sg19
S'are connected to their letter'
p108
sg6
g3
sg7
g8
sg4
S'Target_B_dots_green_.png'
p109
sg31
g10
sg11
S'Between 5 and 9 dots are connected to their letter.'
p110
sg32
g33
sg24
S'Target'
p111
sg13
S'Between 6 and 10 dots are connected to their letter.'
p112
sg15
S'Distributive'
p113
sg22
g23
sg21
g108
sg17
g111
sg28
g3
sg29
S'Target_B_dots_red_.png'
p114
sg34
S'6-10'
p115
sg36
g37
sg26
g27
sg41
S'Target2'
p116
sa(dp117
g2
g3
sg19
g108
sg6
g44
sg7
g8
sg4
S'Target_B_dots_red_.png'
p118
sg31
g10
sg11
S'Between 5 and 9 dots are connected to their letter.'
p119
sg32
g33
sg24
g111
sg13
S'Between 6 and 10 dots are connected to their letter.'
p120
sg15
g113
sg22
g23
sg21
g108
sg17
g111
sg28
g27
sg29
S'Target_B_dots_red_.png'
p121
sg34
g115
sg36
g37
sg26
g27
sg41
g116
sa(dp122
g2
g3
sg4
S'Target_A_dots_red_triangle_above_.png'
p123
sg6
g44
sg7
g8
sg11
S'All dots are red.'
p124
sg13
S'All dots are green.'
p125
sg15
g16
sg17
g25
sg19
g51
sg21
g51
sg22
g23
sg24
g18
sg26
g27
sg41
S'Filler-Target2'
p126
sg29
S'Target_A_dots_red_square_above_.png'
p127
sg31
g9
sg32
g33
sg34
g57
sg36
g57
sg38
g49
sg40
g49
sg28
g27
sa(dp128
g2
g3
sg19
g108
sg6
g27
sg7
g8
sg4
S'Target_B_dots_red_.png'
p129
sg31
g10
sg11
S'Between 5 and 9 dots are connected to their letter.'
p130
sg32
g33
sg24
g111
sg13
S'Between 6 and 10 dots are connected to their letter.'
p131
sg15
g113
sg22
g23
sg21
g108
sg17
g111
sg28
g27
sg29
S'Target_B_dots_blue_.png'
p132
sg34
g115
sg36
g37
sg26
g44
sg41
g116
sa(dp133
g2
g44
sg19
g108
sg6
g3
sg7
g8
sg4
S'Target_B_dots_green_.png'
p134
sg31
g10
sg11
S'Between 5 and 9 dots are connected to their letter.'
p135
sg32
g33
sg24
g111
sg13
S'Between 6 and 10 dots are connected to their letter.'
p136
sg15
g113
sg22
g23
sg21
g108
sg17
g111
sg28
g3
sg29
S'Target_B_dots_red_.png'
p137
sg34
g115
sg36
g37
sg26
g27
sg41
g116
sa(dp138
g2
g44
sg4
S'Target_A_dots_green_triangle_below_.png'
p139
sg6
g3
sg7
g8
sg11
S'All dots are green.'
p140
sg13
S'All dots are green.'
p141
sg15
g16
sg17
g18
sg19
g51
sg21
g51
sg22
g23
sg24
g25
sg26
g27
sg41
S'Filler-Target2'
p142
sg29
S'Target_A_dots_red_square_above_.png'
p143
sg31
g9
sg32
g33
sg34
g57
sg36
g57
sg38
g49
sg40
g39
sg28
g3
sa(dp144
g2
g3
sg19
g108
sg6
g44
sg7
g8
sg4
S'Target_B_crosses_red_.png'
p145
sg31
g10
sg11
S'Between 5 and 9 crosses are connected to their letter.'
p146
sg32
g33
sg24
g111
sg13
S'Between 6 and 10 crosses are connected to their letter.'
p147
sg15
g113
sg22
g78
sg21
g108
sg17
g111
sg28
g27
sg29
S'Target_B_crosses_green_.png'
p148
sg34
g115
sg36
g37
sg26
g3
sg41
g116
sa(dp149
g2
g27
sg19
g108
sg6
g44
sg7
g8
sg4
S'Target_B_crosses_blue_.png'
p150
sg31
g10
sg11
S'Between 5 and 9 crosses are connected to their letter.'
p151
sg32
g33
sg24
g111
sg13
S'Between 6 and 10 crosses are connected to their letter.'
p152
sg15
g113
sg22
g78
sg21
g108
sg17
g111
sg28
g44
sg29
S'Target_B_crosses_green_.png'
p153
sg34
g115
sg36
g37
sg26
g3
sg41
g116
sa(dp154
g2
g27
sg19
g51
sg6
g44
sg7
g8
sg4
S'Target_B_crosses_blue_.png'
p155
sg31
g10
sg11
S'All letters are green.'
p156
sg32
g33
sg24
g18
sg13
S'All letters are red.'
p157
sg15
g16
sg22
g78
sg21
g51
sg17
g25
sg41
S'Filler-Target2'
p158
sg29
S'Target_B_crosses_green_.png'
p159
sg34
g57
sg36
g57
sg26
g3
sg28
g44
sa(dp160
g2
g44
sg19
g108
sg6
g3
sg7
g8
sg4
S'Target_B_crosses_green_.png'
p161
sg31
g10
sg11
S'Between 5 and 9 crosses are connected to their letter.'
p162
sg32
g33
sg24
g111
sg13
S'Between 6 and 10 crosses are connected to their letter.'
p163
sg15
g113
sg22
g78
sg21
g108
sg17
g111
sg28
g3
sg29
S'Target_B_crosses_red_.png'
p164
sg34
g115
sg36
g37
sg26
g27
sg41
g116
sa(dp165
g2
g44
sg19
g108
sg6
g3
sg7
g8
sg4
S'Target_B_crosses_red_.png'
p166
sg31
g10
sg11
S'Between 5 and 9 crosses are connected to their letter.'
p167
sg32
g33
sg24
g111
sg13
S'Between 6 and 10 crosses are connected to their letter.'
p168
sg15
g113
sg22
g78
sg21
g108
sg17
g111
sg28
g27
sg29
S'Target_B_crosses_blue_.png'
p169
sg34
g115
sg36
g37
sg26
g44
sg41
g116
sa(dp170
g2
g44
sg4
S'Target_A_crosses_red_triangle_above_.png'
p171
sg6
g3
sg7
g8
sg11
S'All crosses are green.'
p172
sg13
S'All crosses are red.'
p173
sg15
g16
sg17
g18
sg19
g51
sg21
g51
sg22
g78
sg24
g25
sg26
g44
sg41
S'Filler-Target2'
p174
sg29
S'Target_A_crosses_blue_square_above_.png'
p175
sg31
g9
sg32
g33
sg34
g57
sg36
g57
sg38
g49
sg40
g49
sg28
g27
sa(dp176
g2
g27
sg4
S'False_A_dots_green_triangle_below_.png'
p177
sg6
g44
sg7
g8
sg11
S'Between 5 and 9 dots are above the line.'
p178
sg13
S'Between 4 and 8 dots are below the line.'
p179
sg15
g113
sg17
g18
sg19
S'are below the line'
p180
sg21
S'are above the line'
p181
sg22
g23
sg24
g18
sg26
g3
sg28
g3
sg29
S'False_A_dots_green_square_above_.png'
p182
sg31
g9
sg32
g33
sg34
g35
sg36
g37
sg38
g49
sg40
g39
sg41
S'Env-F'
p183
sa(dp184
g2
g27
sg4
S'False_A_dots_green_triangle_below_.png'
p185
sg6
g44
sg7
g8
sg11
S'Between 5 and 9 dots are below the line.'
p186
sg13
S'Between 4 and 8 dots are below the line.'
p187
sg15
g113
sg17
g18
sg19
S'are below the line'
p188
sg21
S'are below the line'
p189
sg22
g23
sg24
g18
sg26
g27
sg28
g3
sg29
S'False_A_dots_red_square_below_.png'
p190
sg31
g9
sg32
g33
sg34
g35
sg36
g37
sg38
g39
sg40
g39
sg41
g183
sa(dp191
g2
g27
sg19
g51
sg6
g44
sg7
g8
sg4
S'False_B_dots_green_.png'
p192
sg31
g10
sg11
S'Some letters are red.'
p193
sg32
g33
sg24
g25
sg13
S'Some letters are green.'
p194
sg15
g16
sg22
g23
sg21
g51
sg17
g25
sg41
S'Filler-Env-F'
p195
sg29
S'False_B_dots_red_.png'
p196
sg34
g57
sg36
g57
sg26
g27
sg28
g3
sa(dp197
g2
g27
sg4
S'False_A_dots_blue_triangle_above_.png'
p198
sg6
g44
sg7
g8
sg11
S'Between 5 and 9 dots are below the line.'
p199
sg13
S'Between 4 and 8 dots are above the line.'
p200
sg15
g113
sg17
g18
sg19
S'are above the line'
p201
sg21
S'are below the line'
p202
sg22
g23
sg24
g18
sg26
g27
sg28
g44
sg29
S'False_A_dots_red_square_below_.png'
p203
sg31
g9
sg32
g33
sg34
g35
sg36
g37
sg38
g39
sg40
g49
sg41
g183
sa(dp204
g2
g44
sg4
S'False_A_dots_green_triangle_below_.png'
p205
sg6
g3
sg7
g8
sg11
S'Between 5 and 9 dots are below the line.'
p206
sg13
S'Between 4 and 8 dots are below the line.'
p207
sg15
g113
sg17
g18
sg19
S'are below the line'
p208
sg21
S'are below the line'
p209
sg22
g23
sg24
g18
sg26
g27
sg28
g3
sg29
S'False_A_dots_red_square_below_.png'
p210
sg31
g9
sg32
g33
sg34
g35
sg36
g37
sg38
g39
sg40
g39
sg41
g183
sa(dp211
g2
g44
sg4
S'False_A_dots_green_triangle_below_.png'
p212
sg6
g3
sg7
g8
sg11
S'Some dots are red.'
p213
sg13
S'Some dots are green.'
p214
sg15
g16
sg17
g25
sg19
g51
sg21
g51
sg22
g23
sg24
g25
sg26
g27
sg41
S'Filler-Env-F'
p215
sg29
S'False_A_dots_red_square_above_.png'
p216
sg31
g9
sg32
g33
sg34
g57
sg36
g57
sg38
g49
sg40
g39
sg28
g3
sa(dp217
g2
g27
sg4
S'False_A_crosses_blue_triangle_below_.png'
p218
sg6
g3
sg7
g8
sg11
S'Between 5 and 9 crosses are below the line.'
p219
sg13
S'Between 4 and 8 crosses are below the line.'
p220
sg15
g113
sg17
g18
sg19
S'are below the line'
p221
sg21
S'are below the line'
p222
sg22
g78
sg24
g18
sg26
g44
sg28
g44
sg29
S'False_A_crosses_blue_square_below_.png'
p223
sg31
g9
sg32
g33
sg34
g35
sg36
g37
sg38
g39
sg40
g39
sg41
g183
sa(dp224
g2
g44
sg4
S'False_A_crosses_red_triangle_below_.png'
p225
sg6
g3
sg7
g8
sg11
S'Between 5 and 9 crosses are above the line.'
p226
sg13
S'Between 4 and 8 crosses are below the line.'
p227
sg15
g113
sg17
g18
sg19
S'are below the line'
p228
sg21
S'are above the line'
p229
sg22
g78
sg24
g18
sg26
g44
sg28
g27
sg29
S'False_A_crosses_blue_square_above_.png'
p230
sg31
g9
sg32
g33
sg34
g35
sg36
g37
sg38
g49
sg40
g39
sg41
g183
sa(dp231
g2
g44
sg19
g51
sg6
g3
sg7
g8
sg4
S'False_B_crosses_red_.png'
p232
sg31
g10
sg11
S'Some letters are blue.'
p233
sg32
g33
sg24
g25
sg13
S'Some letters are red.'
p234
sg15
g16
sg22
g78
sg21
g51
sg17
g25
sg41
S'Filler-Env-F'
p235
sg29
S'False_B_crosses_blue_.png'
p236
sg34
g57
sg36
g57
sg26
g44
sg28
g27
sa(dp237
g2
g44
sg4
S'False_A_crosses_red_triangle_above_.png'
p238
sg6
g3
sg7
g8
sg11
S'Between 5 and 9 crosses are above the line.'
p239
sg13
S'Between 4 and 8 crosses are above the line.'
p240
sg15
g113
sg17
g18
sg19
S'are above the line'
p241
sg21
S'are above the line'
p242
sg22
g78
sg24
g18
sg26
g44
sg28
g27
sg29
S'False_A_crosses_blue_square_above_.png'
p243
sg31
g9
sg32
g33
sg34
g35
sg36
g37
sg38
g49
sg40
g49
sg41
g183
sa(dp244
g2
g44
sg4
S'False_A_crosses_red_triangle_above_.png'
p245
sg6
g3
sg7
g8
sg11
S'Between 5 and 9 crosses are below the line.'
p246
sg13
S'Between 4 and 8 crosses are above the line.'
p247
sg15
g113
sg17
g18
sg19
S'are above the line'
p248
sg21
S'are below the line'
p249
sg22
g78
sg24
g18
sg26
g27
sg28
g27
sg29
S'False_A_crosses_red_square_below_.png'
p250
sg31
g9
sg32
g33
sg34
g35
sg36
g37
sg38
g39
sg40
g49
sg41
g183
sa(dp251
g2
g44
sg4
S'False_A_crosses_red_triangle_below_.png'
p252
sg6
g3
sg7
g8
sg11
S'Some crosses are red.'
p253
sg13
S'Some crosses are red.'
p254
sg15
g16
sg17
g25
sg19
g51
sg21
g51
sg22
g78
sg24
g25
sg26
g27
sg41
S'Filler-Env-F'
p255
sg29
S'False_A_crosses_red_square_below_.png'
p256
sg31
g9
sg32
g33
sg34
g57
sg36
g57
sg38
g39
sg40
g39
sg28
g27
sa(dp257
g2
g44
sg4
S'True_A_dots_red_triangle_below_.png'
p258
sg6
g27
sg7
g8
sg11
S'Between 5 and 9 dots are below the line.'
p259
sg13
S'Between 4 and 8 dots are below the line.'
p260
sg15
g113
sg17
g25
sg19
S'are below the line'
p261
sg21
S'are below the line'
p262
sg22
g23
sg24
g25
sg26
g44
sg28
g27
sg29
S'True_A_dots_blue_square_below_.png'
p263
sg31
g9
sg32
g33
sg34
g35
sg36
g37
sg38
g39
sg40
g39
sg41
S'Env-T'
p264
sa(dp265
g2
g44
sg4
S'True_A_dots_red_triangle_below_.png'
p266
sg6
g3
sg7
g8
sg11
S'Between 5 and 9 dots are above the line.'
p267
sg13
S'Between 4 and 8 dots are below the line.'
p268
sg15
g113
sg17
g25
sg19
S'are below the line'
p269
sg21
S'are above the line'
p270
sg22
g23
sg24
g25
sg26
g44
sg28
g27
sg29
S'True_A_dots_blue_square_above_.png'
p271
sg31
g9
sg32
g33
sg34
g35
sg36
g37
sg38
g49
sg40
g39
sg41
g264
sa(dp272
g2
g44
sg4
S'True_A_dots_red_triangle_above_.png'
p273
sg6
g3
sg7
g8
sg11
S'Some dots are green.'
p274
sg13
S'Some dots are blue.'
p275
sg15
g16
sg17
g18
sg19
g51
sg21
g51
sg22
g23
sg24
g18
sg26
g44
sg41
S'Filler-Env-T'
p276
sg29
S'True_A_dots_blue_square_below_.png'
p277
sg31
g9
sg32
g33
sg34
g57
sg36
g57
sg38
g39
sg40
g49
sg28
g27
sa(dp278
g2
g3
sg4
S'True_A_dots_blue_triangle_below_.png'
p279
sg6
g3
sg7
g8
sg11
S'Between 5 and 9 dots are below the line.'
p280
sg13
S'Between 4 and 8 dots are below the line.'
p281
sg15
g113
sg17
g25
sg19
S'are below the line'
p282
sg21
S'are below the line'
p283
sg22
g23
sg24
g25
sg26
g27
sg28
g44
sg29
S'True_A_dots_red_square_below_.png'
p284
sg31
g9
sg32
g33
sg34
g35
sg36
g37
sg38
g39
sg40
g39
sg41
g264
sa(dp285
g2
g3
sg4
S'True_A_dots_blue_triangle_below_.png'
p286
sg6
g27
sg7
g8
sg11
S'Between 5 and 9 dots are below the line.'
p287
sg13
S'Between 4 and 8 dots are below the line.'
p288
sg15
g113
sg17
g25
sg19
S'are below the line'
p289
sg21
S'are below the line'
p290
sg22
g23
sg24
g25
sg26
g3
sg28
g44
sg29
S'True_A_dots_green_square_below_.png'
p291
sg31
g9
sg32
g33
sg34
g35
sg36
g37
sg38
g39
sg40
g39
sg41
g264
sa(dp292
g2
g3
sg19
g51
sg6
g27
sg7
g8
sg4
S'True_B_dots_blue_.png'
p293
sg31
g10
sg11
S'Some letters are red.'
p294
sg32
g33
sg24
g18
sg13
S'Some letters are green.'
p295
sg15
g16
sg22
g23
sg21
g51
sg17
g18
sg41
S'Filler-Env-T'
p296
sg29
S'True_B_dots_green_.png'
p297
sg34
g57
sg36
g57
sg26
g3
sg28
g44
sa(dp298
g2
g44
sg4
S'True_A_crosses_red_triangle_above_.png'
p299
sg6
g3
sg7
g8
sg11
S'Between 5 and 9 crosses are below the line.'
p300
sg13
S'Between 4 and 8 crosses are above the line.'
p301
sg15
g113
sg17
g25
sg19
S'are above the line'
p302
sg21
S'are below the line'
p303
sg22
g78
sg24
g25
sg26
g44
sg28
g27
sg29
S'True_A_crosses_blue_square_below_.png'
p304
sg31
g9
sg32
g33
sg34
g35
sg36
g37
sg38
g39
sg40
g49
sg41
g264
sa(dp305
g2
g3
sg4
S'True_A_crosses_red_triangle_above_.png'
p306
sg6
g3
sg7
g8
sg11
S'Between 5 and 9 crosses are below the line.'
p307
sg13
S'Between 4 and 8 crosses are above the line.'
p308
sg15
g113
sg17
g25
sg19
S'are above the line'
p309
sg21
S'are below the line'
p310
sg22
g78
sg24
g25
sg26
g44
sg28
g27
sg29
S'True_A_crosses_blue_square_below_.png'
p311
sg31
g9
sg32
g33
sg34
g35
sg36
g37
sg38
g39
sg40
g49
sg41
g264
sa(dp312
g2
g3
sg4
S'True_A_crosses_red_triangle_above_.png'
p313
sg6
g3
sg7
g8
sg11
S'Some crosses are green.'
p314
sg13
S'Some crosses are green.'
p315
sg15
g16
sg17
g18
sg19
g51
sg21
g51
sg22
g78
sg24
g18
sg26
g44
sg41
S'Filler-Env-T'
p316
sg29
S'True_A_crosses_blue_square_above_.png'
p317
sg31
g9
sg32
g33
sg34
g57
sg36
g57
sg38
g49
sg40
g49
sg28
g27
sa(dp318
g2
g3
sg4
S'True_A_crosses_red_triangle_above_.png'
p319
sg6
g44
sg7
g8
sg11
S'Between 5 and 9 crosses are below the line.'
p320
sg13
S'Between 4 and 8 crosses are above the line.'
p321
sg15
g113
sg17
g25
sg19
S'are above the line'
p322
sg21
S'are below the line'
p323
sg22
g78
sg24
g25
sg26
g27
sg28
g27
sg29
S'True_A_crosses_red_square_below_.png'
p324
sg31
g9
sg32
g33
sg34
g35
sg36
g37
sg38
g39
sg40
g49
sg41
g264
sa(dp325
g2
g27
sg4
S'True_A_crosses_blue_triangle_above_.png'
p326
sg6
g27
sg7
g8
sg11
S'Between 5 and 9 crosses are above the line.'
p327
sg13
S'Between 4 and 8 crosses are above the line.'
p328
sg15
g113
sg17
g25
sg19
S'are above the line'
p329
sg21
S'are above the line'
p330
sg22
g78
sg24
g25
sg26
g44
sg28
g44
sg29
S'True_A_crosses_blue_square_above_.png'
p331
sg31
g9
sg32
g33
sg34
g35
sg36
g37
sg38
g49
sg40
g49
sg41
g264
sa(dp332
g2
g27
sg4
S'True_A_crosses_blue_triangle_below_.png'
p333
sg6
g27
sg7
g8
sg11
S'Some crosses are red.'
p334
sg13
S'Some crosses are red.'
p335
sg15
g16
sg17
g18
sg19
g51
sg21
g51
sg22
g78
sg24
g18
sg26
g44
sg41
S'Filler-Env-T'
p336
sg29
S'True_A_crosses_blue_square_below_.png'
p337
sg31
g9
sg32
g33
sg34
g57
sg36
g57
sg38
g39
sg40
g39
sg28
g44
sa.