(lp0
(dp1
S'False_Color_1'
p2
S'red'
p3
sS'PREDICATE_1'
p4
S'are'
p5
sS'False_Color_2'
p6
S'blue'
p7
sS'GROUP'
p8
(lp9
S'B'
p10
aS'A'
p11
asS'IMAGE_1'
p12
S'Target_B_dots_blue_.png'
p13
sS'IMAGE_TYPE'
p14
g10
sS'S2'
p15
S'The letters are blue.'
p16
sS'STUDY'
p17
S'2'
p18
sS'TRUTH_VALUE_1'
p19
S'True'
p20
sS'S1'
p21
S'The letters are blue.'
p22
sS'PREDICATE_TYPE'
p23
S'Baseline'
p24
sS'SHAPE'
p25
S'dots'
p26
sS'PREDICATE_2'
p27
g5
sS'TRUTH_VALUE_2'
p28
S'False'
p29
sS'Color_1'
p30
g7
sS'IMAGE_2'
p31
S'Target_B_dots_green_.png'
p32
sS'N1'
p33
S'4-8'
p34
sS'N2'
p35
S'5-9'
p36
sS'Color_2'
p37
S'green'
p38
sS'CONDITION'
p39
S'Target1'
p40
sa(dp41
g2
g7
sg4
g5
sg6
g38
sg8
g9
sg12
S'Target_B_dots_green_.png'
p42
sg14
g10
sg15
S'The letters are green.'
p43
sg17
g18
sg19
g20
sg21
S'The letters are green.'
p44
sg23
g24
sg25
g26
sg27
g5
sg28
g29
sg30
g38
sg31
S'Target_B_dots_blue_.png'
p45
sg33
g34
sg35
g36
sg37
g7
sg39
g40
sa(dp46
g2
g7
sg4
S'X'
p47
sg6
g38
sg8
g9
sg12
S'Target_B_dots_green_.png'
p48
sg14
g10
sg15
S'All letters are green.'
p49
sg17
g18
sg19
g29
sg21
S'All letters are blue.'
p50
sg23
g24
sg25
g26
sg27
g47
sg28
g29
sg39
S'Filler-Target1'
p51
sg31
S'Target_B_dots_blue_.png'
p52
sg33
S'X-X'
p53
sg35
g53
sg37
g7
sg30
g38
sa(dp54
g2
g7
sg4
g5
sg6
g38
sg8
g9
sg12
S'Target_B_dots_green_.png'
p55
sg14
g10
sg15
S'The letters are green.'
p56
sg17
g18
sg19
g20
sg21
S'The letters are green.'
p57
sg23
g24
sg25
g26
sg27
g5
sg28
g29
sg30
g38
sg31
S'Target_B_dots_red_.png'
p58
sg33
g34
sg35
g36
sg37
g3
sg39
g40
sa(dp59
g2
g7
sg4
g5
sg6
g7
sg8
g9
sg12
S'Target_B_dots_green_.png'
p60
sg14
g10
sg15
S'The letters are blue.'
p61
sg17
g18
sg19
g20
sg21
S'The letters are green.'
p62
sg23
g24
sg25
g26
sg27
g5
sg28
g29
sg30
g38
sg31
S'Target_B_dots_red_.png'
p63
sg33
g34
sg35
g36
sg37
g3
sg39
g40
sa(dp64
g2
g7
sg4
g47
sg6
g7
sg8
g9
sg12
S'Target_B_dots_green_.png'
p65
sg14
g10
sg15
S'All letters are red.'
p66
sg17
g18
sg19
g29
sg21
S'All letters are blue.'
p67
sg23
g24
sg25
g26
sg27
g47
sg28
g20
sg39
S'Filler-Target1'
p68
sg31
S'Target_B_dots_red_.png'
p69
sg33
g53
sg35
g53
sg37
g3
sg30
g38
sa(dp70
g2
g7
sg4
g5
sg6
g38
sg8
g9
sg12
S'Target_B_crosses_green_.png'
p71
sg14
g10
sg15
S'The letters are green.'
p72
sg17
g18
sg19
g20
sg21
S'The letters are green.'
p73
sg23
g24
sg25
S'crosses'
p74
sg27
g5
sg28
g29
sg30
g38
sg31
S'Target_B_crosses_blue_.png'
p75
sg33
g34
sg35
g36
sg37
g7
sg39
g40
sa(dp76
g2
g38
sg4
g5
sg6
g7
sg8
g9
sg12
S'Target_B_crosses_red_.png'
p77
sg14
g10
sg15
S'The letters are blue.'
p78
sg17
g18
sg19
g20
sg21
S'The letters are red.'
p79
sg23
g24
sg25
g74
sg27
g5
sg28
g29
sg30
g3
sg31
S'Target_B_crosses_green_.png'
p80
sg33
g34
sg35
g36
sg37
g38
sg39
g40
sa(dp81
g2
g38
sg12
S'Target_A_crosses_red_triangle_below_.png'
p82
sg6
g7
sg8
g9
sg15
S'All crosses are green.'
p83
sg21
S'All crosses are red.'
p84
sg23
g24
sg28
g20
sg4
g47
sg27
g47
sg25
g74
sg19
g20
sg37
g38
sg39
S'Filler-Target1'
p85
sg31
S'Target_A_crosses_green_square_above_.png'
p86
sg14
g11
sg17
g18
sg33
g53
sg35
g53
sS'KEY_PRED_2'
p87
S'above'
p88
sS'KEY_PRED_1'
p89
S'below'
p90
sg30
g3
sa(dp91
g2
g38
sg4
g5
sg6
g3
sg8
g9
sg12
S'Target_B_crosses_red_.png'
p92
sg14
g10
sg15
S'The letters are red.'
p93
sg17
g18
sg19
g20
sg21
S'The letters are red.'
p94
sg23
g24
sg25
g74
sg27
g5
sg28
g29
sg30
g3
sg31
S'Target_B_crosses_green_.png'
p95
sg33
g34
sg35
g36
sg37
g38
sg39
g40
sa(dp96
g2
g38
sg4
g5
sg6
g38
sg8
g9
sg12
S'Target_B_crosses_blue_.png'
p97
sg14
g10
sg15
S'The letters are green.'
p98
sg17
g18
sg19
g20
sg21
S'The letters are blue.'
p99
sg23
g24
sg25
g74
sg27
g5
sg28
g29
sg30
g7
sg31
S'Target_B_crosses_red_.png'
p100
sg33
g34
sg35
g36
sg37
g3
sg39
g40
sa(dp101
g2
g38
sg12
S'Target_A_crosses_blue_triangle_above_.png'
p102
sg6
g38
sg8
g9
sg15
S'All crosses are green.'
p103
sg21
S'All crosses are blue.'
p104
sg23
g24
sg28
g29
sg4
g47
sg27
g47
sg25
g74
sg19
g20
sg37
g3
sg39
S'Filler-Target1'
p105
sg31
S'Target_A_crosses_red_square_above_.png'
p106
sg14
g11
sg17
g18
sg33
g53
sg35
g53
sg87
g88
sg89
g88
sg30
g7
sa(dp107
g2
g38
sg12
S'Target_A_dots_blue_triangle_above_.png'
p108
sg6
g3
sg8
g9
sg15
S'Between 5 and 9 dots are below the line.'
p109
sg21
S'Between 4 and 8 dots are above the line.'
p110
sg23
S'Distributive'
p111
sg28
S'Target'
p112
sg4
S'are above the line'
p113
sg27
S'are below the line'
p114
sg25
g26
sg19
g112
sg37
g7
sg30
g7
sg31
S'Target_A_dots_blue_square_below_.png'
p115
sg14
g11
sg17
g18
sg33
g34
sg35
g36
sg87
g90
sg89
g88
sg39
S'Target2'
p116
sa(dp117
g2
g3
sg12
S'Target_A_dots_green_triangle_above_.png'
p118
sg6
g38
sg8
g9
sg15
S'Between 5 and 9 dots are above the line.'
p119
sg21
S'Between 4 and 8 dots are above the line.'
p120
sg23
g111
sg28
g112
sg4
S'are above the line'
p121
sg27
S'are above the line'
p122
sg25
g26
sg19
g112
sg37
g3
sg30
g38
sg31
S'Target_A_dots_red_square_above_.png'
p123
sg14
g11
sg17
g18
sg33
g34
sg35
g36
sg87
g88
sg89
g88
sg39
g116
sa(dp124
g2
g3
sg12
S'Target_A_dots_green_triangle_below_.png'
p125
sg6
g38
sg8
g9
sg15
S'All dots are red.'
p126
sg21
S'All dots are red.'
p127
sg23
g24
sg28
g20
sg4
g47
sg27
g47
sg25
g26
sg19
g29
sg37
g3
sg39
S'Filler-Target2'
p128
sg31
S'Target_A_dots_red_square_above_.png'
p129
sg14
g11
sg17
g18
sg33
g53
sg35
g53
sg87
g88
sg89
g90
sg30
g38
sa(dp130
g2
g7
sg12
S'Target_A_dots_red_triangle_above_.png'
p131
sg6
g3
sg8
g9
sg15
S'Between 5 and 9 dots are above the line.'
p132
sg21
S'Between 4 and 8 dots are above the line.'
p133
sg23
g111
sg28
g112
sg4
S'are above the line'
p134
sg27
S'are above the line'
p135
sg25
g26
sg19
g112
sg37
g7
sg30
g3
sg31
S'Target_A_dots_blue_square_above_.png'
p136
sg14
g11
sg17
g18
sg33
g34
sg35
g36
sg87
g88
sg89
g88
sg39
g116
sa(dp137
g2
g3
sg12
S'Target_A_dots_green_triangle_below_.png'
p138
sg6
g3
sg8
g9
sg15
S'Between 5 and 9 dots are below the line.'
p139
sg21
S'Between 4 and 8 dots are below the line.'
p140
sg23
g111
sg28
g112
sg4
S'are below the line'
p141
sg27
S'are below the line'
p142
sg25
g26
sg19
g112
sg37
g7
sg30
g38
sg31
S'Target_A_dots_blue_square_below_.png'
p143
sg14
g11
sg17
g18
sg33
g34
sg35
g36
sg87
g90
sg89
g90
sg39
g116
sa(dp144
g2
g3
sg12
S'Target_A_dots_green_triangle_above_.png'
p145
sg6
g3
sg8
g9
sg15
S'All dots are blue.'
p146
sg21
S'All dots are green.'
p147
sg23
g24
sg28
g20
sg4
g47
sg27
g47
sg25
g26
sg19
g20
sg37
g7
sg39
S'Filler-Target2'
p148
sg31
S'Target_A_dots_blue_square_above_.png'
p149
sg14
g11
sg17
g18
sg33
g53
sg35
g53
sg87
g88
sg89
g88
sg30
g38
sa(dp150
g2
g3
sg12
S'Target_A_crosses_green_triangle_above_.png'
p151
sg6
g7
sg8
g9
sg15
S'Between 5 and 9 crosses are below the line.'
p152
sg21
S'Between 4 and 8 crosses are above the line.'
p153
sg23
g111
sg28
g112
sg4
S'are above the line'
p154
sg27
S'are below the line'
p155
sg25
g74
sg19
g112
sg37
g3
sg30
g38
sg31
S'Target_A_crosses_red_square_below_.png'
p156
sg14
g11
sg17
g18
sg33
g34
sg35
g36
sg87
g90
sg89
g88
sg39
g116
sa(dp157
g2
g38
sg12
S'Target_A_crosses_red_triangle_below_.png'
p158
sg6
g3
sg8
g9
sg15
S'Between 5 and 9 crosses are above the line.'
p159
sg21
S'Between 4 and 8 crosses are below the line.'
p160
sg23
g111
sg28
g112
sg4
S'are below the line'
p161
sg27
S'are above the line'
p162
sg25
g74
sg19
g112
sg37
g38
sg30
g3
sg31
S'Target_A_crosses_green_square_above_.png'
p163
sg14
g11
sg17
g18
sg33
g34
sg35
g36
sg87
g88
sg89
g90
sg39
g116
sa(dp164
g2
g38
sg4
g47
sg6
g3
sg8
g9
sg12
S'Target_B_crosses_red_.png'
p165
sg14
g10
sg15
S'All letters are green.'
p166
sg17
g18
sg19
g29
sg21
S'All letters are green.'
p167
sg23
g24
sg25
g74
sg27
g47
sg28
g20
sg39
S'Filler-Target2'
p168
sg31
S'Target_B_crosses_green_.png'
p169
sg33
g53
sg35
g53
sg37
g38
sg30
g3
sa(dp170
g2
g38
sg12
S'Target_A_crosses_red_triangle_above_.png'
p171
sg6
g3
sg8
g9
sg15
S'Between 5 and 9 crosses are below the line.'
p172
sg21
S'Between 4 and 8 crosses are above the line.'
p173
sg23
g111
sg28
g112
sg4
S'are above the line'
p174
sg27
S'are below the line'
p175
sg25
g74
sg19
g112
sg37
g7
sg30
g3
sg31
S'Target_A_crosses_blue_square_below_.png'
p176
sg14
g11
sg17
g18
sg33
g34
sg35
g36
sg87
g90
sg89
g88
sg39
g116
sa(dp177
g2
g7
sg12
S'Target_A_crosses_red_triangle_below_.png'
p178
sg6
g3
sg8
g9
sg15
S'Between 5 and 9 crosses are below the line.'
p179
sg21
S'Between 4 and 8 crosses are below the line.'
p180
sg23
g111
sg28
g112
sg4
S'are below the line'
p181
sg27
S'are below the line'
p182
sg25
g74
sg19
g112
sg37
g7
sg30
g3
sg31
S'Target_A_crosses_blue_square_below_.png'
p183
sg14
g11
sg17
g18
sg33
g34
sg35
g36
sg87
g90
sg89
g90
sg39
g116
sa(dp184
g2
g7
sg4
g47
sg6
g3
sg8
g9
sg12
S'Target_B_crosses_red_.png'
p185
sg14
g10
sg15
S'All letters are red.'
p186
sg17
g18
sg19
g29
sg21
S'All letters are blue.'
p187
sg23
g24
sg25
g74
sg27
g47
sg28
g29
sg39
S'Filler-Target2'
p188
sg31
S'Target_B_crosses_blue_.png'
p189
sg33
g53
sg35
g53
sg37
g7
sg30
g3
sa(dp190
g2
g38
sg4
S'are connected to their letter'
p191
sg6
g38
sg8
g9
sg12
S'False_B_dots_blue_.png'
p192
sg14
g10
sg15
S'Between 5 and 9 dots are connected to their letter.'
p193
sg17
g18
sg19
g29
sg21
S'Between 6 and 10 dots are connected to their letter.'
p194
sg23
g111
sg25
g26
sg27
g191
sg28
g29
sg30
g7
sg31
S'False_B_dots_red_.png'
p195
sg33
S'6-10'
p196
sg35
g36
sg37
g3
sg39
S'Env-F'
p197
sa(dp198
g2
g7
sg4
g191
sg6
g7
sg8
g9
sg12
S'False_B_dots_green_.png'
p199
sg14
g10
sg15
S'Between 5 and 9 dots are connected to their letter.'
p200
sg17
g18
sg19
g29
sg21
S'Between 6 and 10 dots are connected to their letter.'
p201
sg23
g111
sg25
g26
sg27
g191
sg28
g29
sg30
g38
sg31
S'False_B_dots_green_.png'
p202
sg33
g196
sg35
g36
sg37
g38
sg39
g197
sa(dp203
g2
g7
sg12
S'False_A_dots_green_triangle_below_.png'
p204
sg6
g7
sg8
g9
sg15
S'Some dots are green.'
p205
sg21
S'Some dots are green.'
p206
sg23
g24
sg28
g20
sg4
g47
sg27
g47
sg25
g26
sg19
g20
sg37
g38
sg39
S'Filler-Env-F'
p207
sg31
S'False_A_dots_green_square_above_.png'
p208
sg14
g11
sg17
g18
sg33
g53
sg35
g53
sg87
g88
sg89
g90
sg30
g38
sa(dp209
g2
g3
sg4
g191
sg6
g38
sg8
g9
sg12
S'False_B_dots_blue_.png'
p210
sg14
g10
sg15
S'Between 5 and 9 dots are connected to their letter.'
p211
sg17
g18
sg19
g29
sg21
S'Between 6 and 10 dots are connected to their letter.'
p212
sg23
g111
sg25
g26
sg27
g191
sg28
g29
sg30
g7
sg31
S'False_B_dots_blue_.png'
p213
sg33
g196
sg35
g36
sg37
g7
sg39
g197
sa(dp214
g2
g3
sg4
g191
sg6
g38
sg8
g9
sg12
S'False_B_dots_green_.png'
p215
sg14
g10
sg15
S'Between 5 and 9 dots are connected to their letter.'
p216
sg17
g18
sg19
g29
sg21
S'Between 6 and 10 dots are connected to their letter.'
p217
sg23
g111
sg25
g26
sg27
g191
sg28
g29
sg30
g38
sg31
S'False_B_dots_red_.png'
p218
sg33
g196
sg35
g36
sg37
g3
sg39
g197
sa(dp219
g2
g3
sg12
S'False_A_dots_green_triangle_above_.png'
p220
sg6
g38
sg8
g9
sg15
S'Some dots are red.'
p221
sg21
S'Some dots are green.'
p222
sg23
g24
sg28
g20
sg4
g47
sg27
g47
sg25
g26
sg19
g20
sg37
g3
sg39
S'Filler-Env-F'
p223
sg31
S'False_A_dots_red_square_above_.png'
p224
sg14
g11
sg17
g18
sg33
g53
sg35
g53
sg87
g88
sg89
g88
sg30
g38
sa(dp225
g2
g3
sg4
g191
sg6
g7
sg8
g9
sg12
S'False_B_crosses_blue_.png'
p226
sg14
g10
sg15
S'Between 5 and 9 crosses are connected to their letter.'
p227
sg17
g18
sg19
g29
sg21
S'Between 6 and 10 crosses are connected to their letter.'
p228
sg23
g111
sg25
g74
sg27
g191
sg28
g29
sg30
g7
sg31
S'False_B_crosses_green_.png'
p229
sg33
g196
sg35
g36
sg37
g38
sg39
g197
sa(dp230
g2
g3
sg4
g191
sg6
g7
sg8
g9
sg12
S'False_B_crosses_green_.png'
p231
sg14
g10
sg15
S'Between 5 and 9 crosses are connected to their letter.'
p232
sg17
g18
sg19
g29
sg21
S'Between 6 and 10 crosses are connected to their letter.'
p233
sg23
g111
sg25
g74
sg27
g191
sg28
g29
sg30
g38
sg31
S'False_B_crosses_red_.png'
p234
sg33
g196
sg35
g36
sg37
g3
sg39
g197
sa(dp235
g2
g3
sg4
g47
sg6
g7
sg8
g9
sg12
S'False_B_crosses_green_.png'
p236
sg14
g10
sg15
S'Some letters are red.'
p237
sg17
g18
sg19
g20
sg21
S'Some letters are green.'
p238
sg23
g24
sg25
g74
sg27
g47
sg28
g20
sg39
S'Filler-Env-F'
p239
sg31
S'False_B_crosses_red_.png'
p240
sg33
g53
sg35
g53
sg37
g3
sg30
g38
sa(dp241
g2
g38
sg4
g191
sg6
g38
sg8
g9
sg12
S'False_B_crosses_red_.png'
p242
sg14
g10
sg15
S'Between 5 and 9 crosses are connected to their letter.'
p243
sg17
g18
sg19
g29
sg21
S'Between 6 and 10 crosses are connected to their letter.'
p244
sg23
g111
sg25
g74
sg27
g191
sg28
g29
sg30
g3
sg31
S'False_B_crosses_blue_.png'
p245
sg33
g196
sg35
g36
sg37
g7
sg39
g197
sa(dp246
g2
g38
sg4
g191
sg6
g38
sg8
g9
sg12
S'False_B_crosses_blue_.png'
p247
sg14
g10
sg15
S'Between 5 and 9 crosses are connected to their letter.'
p248
sg17
g18
sg19
g29
sg21
S'Between 6 and 10 crosses are connected to their letter.'
p249
sg23
g111
sg25
g74
sg27
g191
sg28
g29
sg30
g7
sg31
S'False_B_crosses_blue_.png'
p250
sg33
g196
sg35
g36
sg37
g7
sg39
g197
sa(dp251
g2
g38
sg4
g47
sg6
g38
sg8
g9
sg12
S'False_B_crosses_blue_.png'
p252
sg14
g10
sg15
S'Some letters are blue.'
p253
sg17
g18
sg19
g20
sg21
S'Some letters are blue.'
p254
sg23
g24
sg25
g74
sg27
g47
sg28
g20
sg39
S'Filler-Env-F'
p255
sg31
S'False_B_crosses_blue_.png'
p256
sg33
g53
sg35
g53
sg37
g7
sg30
g7
sa(dp257
g2
g3
sg4
g191
sg6
g3
sg8
g9
sg12
S'True_B_dots_green_.png'
p258
sg14
g10
sg15
S'Between 5 and 9 dots are connected to their letter.'
p259
sg17
g18
sg19
g20
sg21
S'Between 6 and 10 dots are connected to their letter.'
p260
sg23
g111
sg25
g26
sg27
g191
sg28
g20
sg30
g38
sg31
S'True_B_dots_blue_.png'
p261
sg33
g196
sg35
g36
sg37
g7
sg39
S'Env-T'
p262
sa(dp263
g2
g38
sg4
g191
sg6
g38
sg8
g9
sg12
S'True_B_dots_red_.png'
p264
sg14
g10
sg15
S'Between 5 and 9 dots are connected to their letter.'
p265
sg17
g18
sg19
g20
sg21
S'Between 6 and 10 dots are connected to their letter.'
p266
sg23
g111
sg25
g26
sg27
g191
sg28
g20
sg30
g3
sg31
S'True_B_dots_blue_.png'
p267
sg33
g196
sg35
g36
sg37
g7
sg39
g262
sa(dp268
g2
g38
sg12
S'True_A_dots_red_triangle_above_.png'
p269
sg6
g38
sg8
g9
sg15
S'Some dots are green.'
p270
sg21
S'Some dots are green.'
p271
sg23
g24
sg28
g29
sg4
g47
sg27
g47
sg25
g26
sg19
g29
sg37
g7
sg39
S'Filler-Env-T'
p272
sg31
S'True_A_dots_blue_square_above_.png'
p273
sg14
g11
sg17
g18
sg33
g53
sg35
g53
sg87
g88
sg89
g88
sg30
g3
sa(dp274
g2
g3
sg4
g191
sg6
g7
sg8
g9
sg12
S'True_B_dots_green_.png'
p275
sg14
g10
sg15
S'Between 5 and 9 dots are connected to their letter.'
p276
sg17
g18
sg19
g20
sg21
S'Between 6 and 10 dots are connected to their letter.'
p277
sg23
g111
sg25
g26
sg27
g191
sg28
g20
sg30
g38
sg31
S'True_B_dots_red_.png'
p278
sg33
g196
sg35
g36
sg37
g3
sg39
g262
sa(dp279
g2
g7
sg4
g191
sg6
g38
sg8
g9
sg12
S'True_B_dots_green_.png'
p280
sg14
g10
sg15
S'Between 5 and 9 dots are connected to their letter.'
p281
sg17
g18
sg19
g20
sg21
S'Between 6 and 10 dots are connected to their letter.'
p282
sg23
g111
sg25
g26
sg27
g191
sg28
g20
sg30
g38
sg31
S'True_B_dots_blue_.png'
p283
sg33
g196
sg35
g36
sg37
g7
sg39
g262
sa(dp284
g2
g7
sg4
g47
sg6
g38
sg8
g9
sg12
S'True_B_dots_green_.png'
p285
sg14
g10
sg15
S'Some letters are green.'
p286
sg17
g18
sg19
g29
sg21
S'Some letters are blue.'
p287
sg23
g24
sg25
g26
sg27
g47
sg28
g29
sg39
S'Filler-Env-T'
p288
sg31
S'True_B_dots_blue_.png'
p289
sg33
g53
sg35
g53
sg37
g7
sg30
g38
sa(dp290
g2
g38
sg4
g191
sg6
g7
sg8
g9
sg12
S'True_B_crosses_red_.png'
p291
sg14
g10
sg15
S'Between 5 and 9 crosses are connected to their letter.'
p292
sg17
g18
sg19
g20
sg21
S'Between 6 and 10 crosses are connected to their letter.'
p293
sg23
g111
sg25
g74
sg27
g191
sg28
g20
sg30
g3
sg31
S'True_B_crosses_red_.png'
p294
sg33
g196
sg35
g36
sg37
g3
sg39
g262
sa(dp295
g2
g3
sg4
g191
sg6
g7
sg8
g9
sg12
S'True_B_crosses_blue_.png'
p296
sg14
g10
sg15
S'Between 5 and 9 crosses are connected to their letter.'
p297
sg17
g18
sg19
g20
sg21
S'Between 6 and 10 crosses are connected to their letter.'
p298
sg23
g111
sg25
g74
sg27
g191
sg28
g20
sg30
g7
sg31
S'True_B_crosses_green_.png'
p299
sg33
g196
sg35
g36
sg37
g38
sg39
g262
sa(dp300
g2
g3
sg4
g47
sg6
g7
sg8
g9
sg12
S'True_B_crosses_blue_.png'
p301
sg14
g10
sg15
S'Some letters are blue.'
p302
sg17
g18
sg19
g29
sg21
S'Some letters are red.'
p303
sg23
g24
sg25
g74
sg27
g47
sg28
g29
sg39
S'Filler-Env-T'
p304
sg31
S'True_B_crosses_green_.png'
p305
sg33
g53
sg35
g53
sg37
g38
sg30
g7
sa(dp306
g2
g3
sg4
g191
sg6
g7
sg8
g9
sg12
S'True_B_crosses_green_.png'
p307
sg14
g10
sg15
S'Between 5 and 9 crosses are connected to their letter.'
p308
sg17
g18
sg19
g20
sg21
S'Between 6 and 10 crosses are connected to their letter.'
p309
sg23
g111
sg25
g74
sg27
g191
sg28
g20
sg30
g38
sg31
S'True_B_crosses_red_.png'
p310
sg33
g196
sg35
g36
sg37
g3
sg39
g262
sa(dp311
g2
g7
sg4
g191
sg6
g7
sg8
g9
sg12
S'True_B_crosses_green_.png'
p312
sg14
g10
sg15
S'Between 5 and 9 crosses are connected to their letter.'
p313
sg17
g18
sg19
g20
sg21
S'Between 6 and 10 crosses are connected to their letter.'
p314
sg23
g111
sg25
g74
sg27
g191
sg28
g20
sg30
g38
sg31
S'True_B_crosses_red_.png'
p315
sg33
g196
sg35
g36
sg37
g3
sg39
g262
sa(dp316
g2
g7
sg12
S'True_A_crosses_green_triangle_above_.png'
p317
sg6
g7
sg8
g9
sg15
S'Some crosses are blue.'
p318
sg21
S'Some crosses are blue.'
p319
sg23
g24
sg28
g29
sg4
g47
sg27
g47
sg25
g74
sg19
g29
sg37
g3
sg39
S'Filler-Env-T'
p320
sg31
S'True_A_crosses_red_square_above_.png'
p321
sg14
g11
sg17
g18
sg33
g53
sg35
g53
sg87
g88
sg89
g88
sg30
g38
sa.