(lp0
(dp1
S'False_Color_1'
p2
S'blue'
p3
sS'PREDICATE_1'
p4
S'are'
p5
sS'False_Color_2'
p6
S'green'
p7
sS'GROUP'
p8
(lp9
S'D'
p10
aS'C'
p11
asS'IMAGE_1'
p12
S'Target_D_dots_red_.png'
p13
sS'IMAGE_TYPE'
p14
g10
sS'S2'
p15
S'Some dots are green.'
p16
sS'STUDY'
p17
S'2'
p18
sS'TRUTH_VALUE_1'
p19
S'True'
p20
sS'S1'
p21
S'Some dots are red.'
p22
sS'PREDICATE_TYPE'
p23
S'Baseline'
p24
sS'SHAPE'
p25
S'dots'
p26
sS'PREDICATE_2'
p27
g5
sS'TRUTH_VALUE_2'
p28
S'False'
p29
sS'Color_1'
p30
S'red'
p31
sS'IMAGE_2'
p32
S'Target_D_dots_red_.png'
p33
sS'N1'
p34
S'4-8'
p35
sS'N2'
p36
S'5-9'
p37
sS'Color_2'
p38
g31
sS'CONDITION'
p39
S'Target1'
p40
sa(dp41
g2
g3
sg4
g5
sg6
g3
sg8
g9
sg12
S'Target_D_dots_red_.png'
p42
sg14
g10
sg15
S'Some dots are blue.'
p43
sg17
g18
sg19
g20
sg21
S'Some dots are red.'
p44
sg23
g24
sg25
g26
sg27
g5
sg28
g29
sg30
g31
sg32
S'Target_D_dots_red_.png'
p45
sg34
g35
sg36
g37
sg38
g31
sg39
g40
sa(dp46
g2
g3
sg12
S'Target_A_dots_red_triangle_below_.png'
p47
sg6
g3
sg8
g9
sg15
S'All dots are blue.'
p48
sg21
S'All dots are blue.'
p49
sg23
g24
sg28
g29
sg4
S'X'
p50
sg27
g50
sg25
g26
sg19
g29
sg38
g31
sg39
S'Filler-Target1'
p51
sg32
S'Target_A_dots_red_square_above_.png'
p52
sg14
g11
sg17
g18
sg34
S'X-X'
p53
sg36
g53
sS'KEY_PRED_2'
p54
S'above'
p55
sS'KEY_PRED_1'
p56
S'below'
p57
sg30
g31
sa(dp58
g2
g31
sg4
g5
sg6
g31
sg8
g9
sg12
S'Target_D_dots_green_.png'
p59
sg14
g10
sg15
S'Some dots are red.'
p60
sg17
g18
sg19
g20
sg21
S'Some dots are green.'
p61
sg23
g24
sg25
g26
sg27
g5
sg28
g29
sg30
g7
sg32
S'Target_D_dots_blue_.png'
p62
sg34
g35
sg36
g37
sg38
g3
sg39
g40
sa(dp63
g2
g31
sg4
g5
sg6
g7
sg8
g9
sg12
S'Target_D_dots_green_.png'
p64
sg14
g10
sg15
S'Some dots are green.'
p65
sg17
g18
sg19
g20
sg21
S'Some dots are green.'
p66
sg23
g24
sg25
g26
sg27
g5
sg28
g29
sg30
g7
sg32
S'Target_D_dots_blue_.png'
p67
sg34
g35
sg36
g37
sg38
g3
sg39
g40
sa(dp68
g2
g31
sg12
S'Target_A_dots_green_triangle_below_.png'
p69
sg6
g7
sg8
g9
sg15
S'All dots are green.'
p70
sg21
S'All dots are green.'
p71
sg23
g24
sg28
g29
sg4
g50
sg27
g50
sg25
g26
sg19
g20
sg38
g3
sg39
S'Filler-Target1'
p72
sg32
S'Target_A_dots_blue_square_above_.png'
p73
sg14
g11
sg17
g18
sg34
g53
sg36
g53
sg54
g55
sg56
g57
sg30
g7
sa(dp74
g2
g31
sg4
g5
sg6
g3
sg8
g9
sg12
S'Target_D_crosses_green_.png'
p75
sg14
g10
sg15
S'Some crosses are blue.'
p76
sg17
g18
sg19
g20
sg21
S'Some crosses are green.'
p77
sg23
g24
sg25
S'crosses'
p78
sg27
g5
sg28
g29
sg30
g7
sg32
S'Target_D_crosses_green_.png'
p79
sg34
g35
sg36
g37
sg38
g7
sg39
g40
sa(dp80
g2
g31
sg4
g5
sg6
g3
sg8
g9
sg12
S'Target_D_crosses_green_.png'
p81
sg14
g10
sg15
S'Some crosses are blue.'
p82
sg17
g18
sg19
g20
sg21
S'Some crosses are green.'
p83
sg23
g24
sg25
g78
sg27
g5
sg28
g29
sg30
g7
sg32
S'Target_D_crosses_green_.png'
p84
sg34
g35
sg36
g37
sg38
g7
sg39
g40
sa(dp85
g2
g31
sg4
g50
sg6
g3
sg8
g9
sg12
S'Target_D_crosses_green_.png'
p86
sg14
g10
sg15
S'Some crosses are green.'
p87
sg17
g18
sg19
g29
sg21
S'Some crosses are red.'
p88
sg23
g24
sg25
g78
sg27
g50
sg28
g20
sg39
S'Filler-Target1'
p89
sg32
S'Target_D_crosses_green_.png'
p90
sg34
g53
sg36
g53
sg38
g7
sg30
g7
sa(dp91
g2
g7
sg4
g5
sg6
g3
sg8
g9
sg12
S'Target_D_crosses_red_.png'
p92
sg14
g10
sg15
S'Some crosses are blue.'
p93
sg17
g18
sg19
g20
sg21
S'Some crosses are red.'
p94
sg23
g24
sg25
g78
sg27
g5
sg28
g29
sg30
g31
sg32
S'Target_D_crosses_red_.png'
p95
sg34
g35
sg36
g37
sg38
g31
sg39
g40
sa(dp96
g2
g7
sg4
g5
sg6
g3
sg8
g9
sg12
S'Target_D_crosses_red_.png'
p97
sg14
g10
sg15
S'Some crosses are blue.'
p98
sg17
g18
sg19
g20
sg21
S'Some crosses are red.'
p99
sg23
g24
sg25
g78
sg27
g5
sg28
g29
sg30
g31
sg32
S'Target_D_crosses_red_.png'
p100
sg34
g35
sg36
g37
sg38
g31
sg39
g40
sa(dp101
g2
g7
sg4
g50
sg6
g3
sg8
g9
sg12
S'Target_D_crosses_red_.png'
p102
sg14
g10
sg15
S'Some crosses are red.'
p103
sg17
g18
sg19
g29
sg21
S'Some crosses are green.'
p104
sg23
g24
sg25
g78
sg27
g50
sg28
g20
sg39
S'Filler-Target1'
p105
sg32
S'Target_D_crosses_red_.png'
p106
sg34
g53
sg36
g53
sg38
g31
sg30
g31
sa(dp107
g2
g7
sg12
S'Target_A_dots_blue_triangle_below_.png'
p108
sg6
g3
sg8
g9
sg15
S'Between 5 and 9 dots are below the line.'
p109
sg21
S'Between 4 and 8 dots are below the line.'
p110
sg23
S'Distributive'
p111
sg28
S'Target'
p112
sg4
S'are below the line'
p113
sg27
S'are below the line'
p114
sg25
g26
sg19
g112
sg38
g7
sg30
g3
sg32
S'Target_A_dots_green_square_below_.png'
p115
sg14
g11
sg17
g18
sg34
g35
sg36
g37
sg54
g57
sg56
g57
sg39
S'Target2'
p116
sa(dp117
g2
g31
sg12
S'Target_A_dots_green_triangle_below_.png'
p118
sg6
g7
sg8
g9
sg15
S'Between 5 and 9 dots are above the line.'
p119
sg21
S'Between 4 and 8 dots are below the line.'
p120
sg23
g111
sg28
g112
sg4
S'are below the line'
p121
sg27
S'are above the line'
p122
sg25
g26
sg19
g112
sg38
g3
sg30
g7
sg32
S'Target_A_dots_blue_square_above_.png'
p123
sg14
g11
sg17
g18
sg34
g35
sg36
g37
sg54
g55
sg56
g57
sg39
g116
sa(dp124
g2
g31
sg12
S'Target_A_dots_green_triangle_above_.png'
p125
sg6
g7
sg8
g9
sg15
S'All dots are green.'
p126
sg21
S'All dots are red.'
p127
sg23
g24
sg28
g29
sg4
g50
sg27
g50
sg25
g26
sg19
g29
sg38
g3
sg39
S'Filler-Target2'
p128
sg32
S'Target_A_dots_blue_square_below_.png'
p129
sg14
g11
sg17
g18
sg34
g53
sg36
g53
sg54
g57
sg56
g55
sg30
g7
sa(dp130
g2
g31
sg12
S'Target_A_dots_green_triangle_below_.png'
p131
sg6
g3
sg8
g9
sg15
S'Between 5 and 9 dots are above the line.'
p132
sg21
S'Between 4 and 8 dots are below the line.'
p133
sg23
g111
sg28
g112
sg4
S'are below the line'
p134
sg27
S'are above the line'
p135
sg25
g26
sg19
g112
sg38
g7
sg30
g7
sg32
S'Target_A_dots_green_square_above_.png'
p136
sg14
g11
sg17
g18
sg34
g35
sg36
g37
sg54
g55
sg56
g57
sg39
g116
sa(dp137
g2
g7
sg12
S'Target_A_dots_blue_triangle_below_.png'
p138
sg6
g3
sg8
g9
sg15
S'Between 5 and 9 dots are below the line.'
p139
sg21
S'Between 4 and 8 dots are below the line.'
p140
sg23
g111
sg28
g112
sg4
S'are below the line'
p141
sg27
S'are below the line'
p142
sg25
g26
sg19
g112
sg38
g31
sg30
g3
sg32
S'Target_A_dots_red_square_below_.png'
p143
sg14
g11
sg17
g18
sg34
g35
sg36
g37
sg54
g57
sg56
g57
sg39
g116
sa(dp144
g2
g7
sg4
g50
sg6
g3
sg8
g9
sg12
S'Target_D_dots_blue_.png'
p145
sg14
g10
sg15
S'Some dots are blue.'
p146
sg17
g18
sg19
g20
sg21
S'Some dots are blue.'
p147
sg23
g24
sg25
g26
sg27
g50
sg28
g29
sg39
S'Filler-Target2'
p148
sg32
S'Target_D_dots_red_.png'
p149
sg34
g53
sg36
g53
sg38
g31
sg30
g3
sa(dp150
g2
g3
sg12
S'Target_A_crosses_red_triangle_below_.png'
p151
sg6
g3
sg8
g9
sg15
S'Between 5 and 9 crosses are above the line.'
p152
sg21
S'Between 4 and 8 crosses are below the line.'
p153
sg23
g111
sg28
g112
sg4
S'are below the line'
p154
sg27
S'are above the line'
p155
sg25
g78
sg19
g112
sg38
g31
sg30
g31
sg32
S'Target_A_crosses_red_square_above_.png'
p156
sg14
g11
sg17
g18
sg34
g35
sg36
g37
sg54
g55
sg56
g57
sg39
g116
sa(dp157
g2
g31
sg12
S'Target_A_crosses_blue_triangle_above_.png'
p158
sg6
g7
sg8
g9
sg15
S'Between 5 and 9 crosses are above the line.'
p159
sg21
S'Between 4 and 8 crosses are above the line.'
p160
sg23
g111
sg28
g112
sg4
S'are above the line'
p161
sg27
S'are above the line'
p162
sg25
g78
sg19
g112
sg38
g31
sg30
g3
sg32
S'Target_A_crosses_red_square_above_.png'
p163
sg14
g11
sg17
g18
sg34
g35
sg36
g37
sg54
g55
sg56
g55
sg39
g116
sa(dp164
g2
g31
sg4
g50
sg6
g7
sg8
g9
sg12
S'Target_D_crosses_blue_.png'
p165
sg14
g10
sg15
S'Some crosses are red.'
p166
sg17
g18
sg19
g29
sg21
S'Some crosses are red.'
p167
sg23
g24
sg25
g78
sg27
g50
sg28
g20
sg39
S'Filler-Target2'
p168
sg32
S'Target_D_crosses_red_.png'
p169
sg34
g53
sg36
g53
sg38
g31
sg30
g3
sa(dp170
g2
g3
sg12
S'Target_A_crosses_red_triangle_below_.png'
p171
sg6
g3
sg8
g9
sg15
S'Between 5 and 9 crosses are above the line.'
p172
sg21
S'Between 4 and 8 crosses are below the line.'
p173
sg23
g111
sg28
g112
sg4
S'are below the line'
p174
sg27
S'are above the line'
p175
sg25
g78
sg19
g112
sg38
g31
sg30
g31
sg32
S'Target_A_crosses_red_square_above_.png'
p176
sg14
g11
sg17
g18
sg34
g35
sg36
g37
sg54
g55
sg56
g57
sg39
g116
sa(dp177
g2
g7
sg12
S'Target_A_crosses_red_triangle_above_.png'
p178
sg6
g31
sg8
g9
sg15
S'Between 5 and 9 crosses are below the line.'
p179
sg21
S'Between 4 and 8 crosses are above the line.'
p180
sg23
g111
sg28
g112
sg4
S'are above the line'
p181
sg27
S'are below the line'
p182
sg25
g78
sg19
g112
sg38
g7
sg30
g31
sg32
S'Target_A_crosses_green_square_below_.png'
p183
sg14
g11
sg17
g18
sg34
g35
sg36
g37
sg54
g57
sg56
g55
sg39
g116
sa(dp184
g2
g7
sg12
S'Target_A_crosses_red_triangle_above_.png'
p185
sg6
g31
sg8
g9
sg15
S'All crosses are red.'
p186
sg21
S'All crosses are red.'
p187
sg23
g24
sg28
g29
sg4
g50
sg27
g50
sg25
g78
sg19
g20
sg38
g7
sg39
S'Filler-Target2'
p188
sg32
S'Target_A_crosses_green_square_below_.png'
p189
sg14
g11
sg17
g18
sg34
g53
sg36
g53
sg54
g57
sg56
g55
sg30
g31
sa(dp190
g2
g7
sg4
S'are connected to the letter'
p191
sg6
g31
sg8
g9
sg12
S'False_D_dots_blue_.png'
p192
sg14
g10
sg15
S'Between 5 and 9 dots are connected to the letter.'
p193
sg17
g18
sg19
g29
sg21
S'Between 6 and 10 dots are connected to the letter.'
p194
sg23
g111
sg25
g26
sg27
g191
sg28
g29
sg30
g3
sg32
S'False_D_dots_green_.png'
p195
sg34
S'6-10'
p196
sg36
g37
sg38
g7
sg39
S'Env-F'
p197
sa(dp198
g2
g3
sg4
g191
sg6
g31
sg8
g9
sg12
S'False_D_dots_red_.png'
p199
sg14
g10
sg15
S'Between 5 and 9 dots are connected to the letter.'
p200
sg17
g18
sg19
g29
sg21
S'Between 6 and 10 dots are connected to the letter.'
p201
sg23
g111
sg25
g26
sg27
g191
sg28
g29
sg30
g31
sg32
S'False_D_dots_green_.png'
p202
sg34
g196
sg36
g37
sg38
g7
sg39
g197
sa(dp203
g2
g3
sg12
S'False_A_dots_red_triangle_below_.png'
p204
sg6
g31
sg8
g9
sg15
S'Some dots are green.'
p205
sg21
S'Some dots are red.'
p206
sg23
g24
sg28
g20
sg4
g50
sg27
g50
sg25
g26
sg19
g20
sg38
g7
sg39
S'Filler-Env-F'
p207
sg32
S'False_A_dots_green_square_above_.png'
p208
sg14
g11
sg17
g18
sg34
g53
sg36
g53
sg54
g55
sg56
g57
sg30
g31
sa(dp209
g2
g7
sg4
g191
sg6
g3
sg8
g9
sg12
S'False_D_dots_blue_.png'
p210
sg14
g10
sg15
S'Between 5 and 9 dots are connected to the letter.'
p211
sg17
g18
sg19
g29
sg21
S'Between 6 and 10 dots are connected to the letter.'
p212
sg23
g111
sg25
g26
sg27
g191
sg28
g29
sg30
g3
sg32
S'False_D_dots_red_.png'
p213
sg34
g196
sg36
g37
sg38
g31
sg39
g197
sa(dp214
g2
g31
sg4
g191
sg6
g3
sg8
g9
sg12
S'False_D_dots_green_.png'
p215
sg14
g10
sg15
S'Between 5 and 9 dots are connected to the letter.'
p216
sg17
g18
sg19
g29
sg21
S'Between 6 and 10 dots are connected to the letter.'
p217
sg23
g111
sg25
g26
sg27
g191
sg28
g29
sg30
g7
sg32
S'False_D_dots_green_.png'
p218
sg34
g196
sg36
g37
sg38
g7
sg39
g197
sa(dp219
g2
g31
sg4
g50
sg6
g3
sg8
g9
sg12
S'False_D_dots_green_.png'
p220
sg14
g10
sg15
S'All dots are green.'
p221
sg17
g18
sg19
g20
sg21
S'All dots are green.'
p222
sg23
g24
sg25
g26
sg27
g50
sg28
g20
sg39
S'Filler-Env-F'
p223
sg32
S'False_D_dots_green_.png'
p224
sg34
g53
sg36
g53
sg38
g7
sg30
g7
sa(dp225
g2
g7
sg4
g191
sg6
g31
sg8
g9
sg12
S'False_D_crosses_red_.png'
p226
sg14
g10
sg15
S'Between 5 and 9 crosses are connected to the letter.'
p227
sg17
g18
sg19
g29
sg21
S'Between 6 and 10 crosses are connected to the letter.'
p228
sg23
g111
sg25
g78
sg27
g191
sg28
g29
sg30
g31
sg32
S'False_D_crosses_green_.png'
p229
sg34
g196
sg36
g37
sg38
g7
sg39
g197
sa(dp230
g2
g3
sg4
g191
sg6
g7
sg8
g9
sg12
S'False_D_crosses_green_.png'
p231
sg14
g10
sg15
S'Between 5 and 9 crosses are connected to the letter.'
p232
sg17
g18
sg19
g29
sg21
S'Between 6 and 10 crosses are connected to the letter.'
p233
sg23
g111
sg25
g78
sg27
g191
sg28
g29
sg30
g7
sg32
S'False_D_crosses_blue_.png'
p234
sg34
g196
sg36
g37
sg38
g3
sg39
g197
sa(dp235
g2
g3
sg4
g50
sg6
g7
sg8
g9
sg12
S'False_D_crosses_green_.png'
p236
sg14
g10
sg15
S'All crosses are blue.'
p237
sg17
g18
sg19
g20
sg21
S'All crosses are green.'
p238
sg23
g24
sg25
g78
sg27
g50
sg28
g20
sg39
S'Filler-Env-F'
p239
sg32
S'False_D_crosses_blue_.png'
p240
sg34
g53
sg36
g53
sg38
g3
sg30
g7
sa(dp241
g2
g31
sg4
g191
sg6
g7
sg8
g9
sg12
S'False_D_crosses_blue_.png'
p242
sg14
g10
sg15
S'Between 5 and 9 crosses are connected to the letter.'
p243
sg17
g18
sg19
g29
sg21
S'Between 6 and 10 crosses are connected to the letter.'
p244
sg23
g111
sg25
g78
sg27
g191
sg28
g29
sg30
g3
sg32
S'False_D_crosses_red_.png'
p245
sg34
g196
sg36
g37
sg38
g31
sg39
g197
sa(dp246
g2
g31
sg4
g191
sg6
g7
sg8
g9
sg12
S'False_D_crosses_blue_.png'
p247
sg14
g10
sg15
S'Between 5 and 9 crosses are connected to the letter.'
p248
sg17
g18
sg19
g29
sg21
S'Between 6 and 10 crosses are connected to the letter.'
p249
sg23
g111
sg25
g78
sg27
g191
sg28
g29
sg30
g3
sg32
S'False_D_crosses_red_.png'
p250
sg34
g196
sg36
g37
sg38
g31
sg39
g197
sa(dp251
g2
g31
sg12
S'False_A_crosses_blue_triangle_below_.png'
p252
sg6
g7
sg8
g9
sg15
S'Some crosses are red.'
p253
sg21
S'Some crosses are blue.'
p254
sg23
g24
sg28
g20
sg4
g50
sg27
g50
sg25
g78
sg19
g20
sg38
g31
sg39
S'Filler-Env-F'
p255
sg32
S'False_A_crosses_red_square_below_.png'
p256
sg14
g11
sg17
g18
sg34
g53
sg36
g53
sg54
g57
sg56
g57
sg30
g3
sa(dp257
g2
g3
sg4
g191
sg6
g7
sg8
g9
sg12
S'True_D_dots_green_.png'
p258
sg14
g10
sg15
S'Between 5 and 9 dots are connected to the letter.'
p259
sg17
g18
sg19
g20
sg21
S'Between 6 and 10 dots are connected to the letter.'
p260
sg23
g111
sg25
g26
sg27
g191
sg28
g20
sg30
g7
sg32
S'True_D_dots_blue_.png'
p261
sg34
g196
sg36
g37
sg38
g3
sg39
S'Env-T'
p262
sa(dp263
g2
g7
sg4
g191
sg6
g3
sg8
g9
sg12
S'True_D_dots_blue_.png'
p264
sg14
g10
sg15
S'Between 5 and 9 dots are connected to the letter.'
p265
sg17
g18
sg19
g20
sg21
S'Between 6 and 10 dots are connected to the letter.'
p266
sg23
g111
sg25
g26
sg27
g191
sg28
g20
sg30
g3
sg32
S'True_D_dots_red_.png'
p267
sg34
g196
sg36
g37
sg38
g31
sg39
g262
sa(dp268
g2
g7
sg12
S'True_A_dots_blue_triangle_below_.png'
p269
sg6
g3
sg8
g9
sg15
S'Some dots are blue.'
p270
sg21
S'Some dots are green.'
p271
sg23
g24
sg28
g29
sg4
g50
sg27
g50
sg25
g26
sg19
g29
sg38
g31
sg39
S'Filler-Env-T'
p272
sg32
S'True_A_dots_red_square_below_.png'
p273
sg14
g11
sg17
g18
sg34
g53
sg36
g53
sg54
g57
sg56
g57
sg30
g3
sa(dp274
g2
g31
sg4
g191
sg6
g31
sg8
g9
sg12
S'True_D_dots_green_.png'
p275
sg14
g10
sg15
S'Between 5 and 9 dots are connected to the letter.'
p276
sg17
g18
sg19
g20
sg21
S'Between 6 and 10 dots are connected to the letter.'
p277
sg23
g111
sg25
g26
sg27
g191
sg28
g20
sg30
g7
sg32
S'True_D_dots_green_.png'
p278
sg34
g196
sg36
g37
sg38
g7
sg39
g262
sa(dp279
g2
g3
sg4
g191
sg6
g7
sg8
g9
sg12
S'True_D_dots_green_.png'
p280
sg14
g10
sg15
S'Between 5 and 9 dots are connected to the letter.'
p281
sg17
g18
sg19
g20
sg21
S'Between 6 and 10 dots are connected to the letter.'
p282
sg23
g111
sg25
g26
sg27
g191
sg28
g20
sg30
g7
sg32
S'True_D_dots_red_.png'
p283
sg34
g196
sg36
g37
sg38
g31
sg39
g262
sa(dp284
g2
g3
sg4
g50
sg6
g7
sg8
g9
sg12
S'True_D_dots_green_.png'
p285
sg14
g10
sg15
S'All dots are green.'
p286
sg17
g18
sg19
g29
sg21
S'All dots are blue.'
p287
sg23
g24
sg25
g26
sg27
g50
sg28
g29
sg39
S'Filler-Env-T'
p288
sg32
S'True_D_dots_red_.png'
p289
sg34
g53
sg36
g53
sg38
g31
sg30
g7
sa(dp290
g2
g31
sg4
g191
sg6
g31
sg8
g9
sg12
S'True_D_crosses_blue_.png'
p291
sg14
g10
sg15
S'Between 5 and 9 crosses are connected to the letter.'
p292
sg17
g18
sg19
g20
sg21
S'Between 6 and 10 crosses are connected to the letter.'
p293
sg23
g111
sg25
g78
sg27
g191
sg28
g20
sg30
g3
sg32
S'True_D_crosses_green_.png'
p294
sg34
g196
sg36
g37
sg38
g7
sg39
g262
sa(dp295
g2
g3
sg4
g191
sg6
g7
sg8
g9
sg12
S'True_D_crosses_red_.png'
p296
sg14
g10
sg15
S'Between 5 and 9 crosses are connected to the letter.'
p297
sg17
g18
sg19
g20
sg21
S'Between 6 and 10 crosses are connected to the letter.'
p298
sg23
g111
sg25
g78
sg27
g191
sg28
g20
sg30
g31
sg32
S'True_D_crosses_blue_.png'
p299
sg34
g196
sg36
g37
sg38
g3
sg39
g262
sa(dp300
g2
g3
sg12
S'True_A_crosses_red_triangle_above_.png'
p301
sg6
g7
sg8
g9
sg15
S'Some crosses are green.'
p302
sg21
S'Some crosses are blue.'
p303
sg23
g24
sg28
g29
sg4
g50
sg27
g50
sg25
g78
sg19
g29
sg38
g3
sg39
S'Filler-Env-T'
p304
sg32
S'True_A_crosses_blue_square_above_.png'
p305
sg14
g11
sg17
g18
sg34
g53
sg36
g53
sg54
g55
sg56
g55
sg30
g31
sa(dp306
g2
g3
sg4
g191
sg6
g7
sg8
g9
sg12
S'True_D_crosses_red_.png'
p307
sg14
g10
sg15
S'Between 5 and 9 crosses are connected to the letter.'
p308
sg17
g18
sg19
g20
sg21
S'Between 6 and 10 crosses are connected to the letter.'
p309
sg23
g111
sg25
g78
sg27
g191
sg28
g20
sg30
g31
sg32
S'True_D_crosses_red_.png'
p310
sg34
g196
sg36
g37
sg38
g31
sg39
g262
sa(dp311
g2
g7
sg4
g191
sg6
g7
sg8
g9
sg12
S'True_D_crosses_blue_.png'
p312
sg14
g10
sg15
S'Between 5 and 9 crosses are connected to the letter.'
p313
sg17
g18
sg19
g20
sg21
S'Between 6 and 10 crosses are connected to the letter.'
p314
sg23
g111
sg25
g78
sg27
g191
sg28
g20
sg30
g3
sg32
S'True_D_crosses_blue_.png'
p315
sg34
g196
sg36
g37
sg38
g3
sg39
g262
sa(dp316
g2
g7
sg12
S'True_A_crosses_blue_triangle_above_.png'
p317
sg6
g7
sg8
g9
sg15
S'Some crosses are green.'
p318
sg21
S'Some crosses are green.'
p319
sg23
g24
sg28
g29
sg4
g50
sg27
g50
sg25
g78
sg19
g29
sg38
g3
sg39
S'Filler-Env-T'
p320
sg32
S'True_A_crosses_blue_square_above_.png'
p321
sg14
g11
sg17
g18
sg34
g53
sg36
g53
sg54
g55
sg56
g55
sg30
g3
sa.