(lp0
(dp1
S'False_Color_1'
p2
S'green'
p3
sS'IMAGE_1'
p4
S'Target_A_dots_red_triangle_below_.png'
p5
sS'False_Color_2'
p6
g3
sS'GROUP'
p7
(lp8
S'A'
p9
aS'B'
p10
asS'S2'
p11
S'The dots are green.'
p12
sS'S1'
p13
S'The dots are red.'
p14
sS'PREDICATE_TYPE'
p15
S'Baseline'
p16
sS'TRUTH_VALUE_2'
p17
S'False'
p18
sS'PREDICATE_1'
p19
S'are'
p20
sS'PREDICATE_2'
p21
g20
sS'SHAPE'
p22
S'dots'
p23
sS'TRUTH_VALUE_1'
p24
S'True'
p25
sS'Color_2'
p26
S'blue'
p27
sS'Color_1'
p28
S'red'
p29
sS'IMAGE_2'
p30
S'Target_A_dots_blue_square_below_.png'
p31
sS'IMAGE_TYPE'
p32
g9
sS'STUDY'
p33
S'1'
p34
sS'N1'
p35
S'4-8'
p36
sS'N2'
p37
S'5-9'
p38
sS'KEY_PRED_2'
p39
S'below'
p40
sS'KEY_PRED_1'
p41
g40
sS'CONDITION'
p42
S'Target1'
p43
sa(dp44
g2
g29
sg4
S'Target_A_dots_blue_triangle_above_.png'
p45
sg6
g3
sg7
g8
sg11
S'The dots are green.'
p46
sg13
S'The dots are blue.'
p47
sg15
g16
sg17
g18
sg19
g20
sg21
g20
sg22
g23
sg24
g25
sg26
g27
sg28
g27
sg30
S'Target_A_dots_blue_square_above_.png'
p48
sg32
g9
sg33
g34
sg35
g36
sg37
g38
sg39
S'above'
p49
sg41
g49
sg42
g43
sa(dp50
g2
g29
sg4
S'Target_A_dots_blue_triangle_below_.png'
p51
sg6
g3
sg7
g8
sg11
S'All dots are green.'
p52
sg13
S'All dots are red.'
p53
sg15
g16
sg17
g18
sg19
S'X'
p54
sg21
g54
sg22
g23
sg24
g18
sg26
g27
sg42
S'Filler-Target1'
p55
sg30
S'Target_A_dots_blue_square_below_.png'
p56
sg32
g9
sg33
g34
sg35
S'X-X'
p57
sg37
g57
sg39
g40
sg41
g40
sg28
g27
sa(dp58
g2
g29
sg4
S'Target_A_dots_green_triangle_below_.png'
p59
sg6
g27
sg7
g8
sg11
S'The dots are blue.'
p60
sg13
S'The dots are green.'
p61
sg15
g16
sg17
g18
sg19
g20
sg21
g20
sg22
g23
sg24
g25
sg26
g3
sg28
g3
sg30
S'Target_A_dots_green_square_above_.png'
p62
sg32
g9
sg33
g34
sg35
g36
sg37
g38
sg39
g49
sg41
g40
sg42
g43
sa(dp63
g2
g3
sg4
S'Target_A_dots_blue_triangle_above_.png'
p64
sg6
g3
sg7
g8
sg11
S'The dots are green.'
p65
sg13
S'The dots are blue.'
p66
sg15
g16
sg17
g18
sg19
g20
sg21
g20
sg22
g23
sg24
g25
sg26
g29
sg28
g27
sg30
S'Target_A_dots_red_square_above_.png'
p67
sg32
g9
sg33
g34
sg35
g36
sg37
g38
sg39
g49
sg41
g49
sg42
g43
sa(dp68
g2
g3
sg4
S'Target_A_dots_blue_triangle_above_.png'
p69
sg6
g3
sg7
g8
sg11
S'All dots are red.'
p70
sg13
S'All dots are green.'
p71
sg15
g16
sg17
g25
sg19
g54
sg21
g54
sg22
g23
sg24
g18
sg26
g29
sg42
S'Filler-Target1'
p72
sg30
S'Target_A_dots_red_square_below_.png'
p73
sg32
g9
sg33
g34
sg35
g57
sg37
g57
sg39
g40
sg41
g49
sg28
g27
sa(dp74
g2
g27
sg4
S'Target_A_crosses_red_triangle_below_.png'
p75
sg6
g27
sg7
g8
sg11
S'The crosses are blue.'
p76
sg13
S'The crosses are red.'
p77
sg15
g16
sg17
g18
sg19
g20
sg21
g20
sg22
S'crosses'
p78
sg24
g25
sg26
g29
sg28
g29
sg30
S'Target_A_crosses_red_square_above_.png'
p79
sg32
g9
sg33
g34
sg35
g36
sg37
g38
sg39
g49
sg41
g40
sg42
g43
sa(dp80
g2
g3
sg4
S'Target_A_crosses_red_triangle_below_.png'
p81
sg6
g27
sg7
g8
sg11
S'The crosses are blue.'
p82
sg13
S'The crosses are red.'
p83
sg15
g16
sg17
g18
sg19
g20
sg21
g20
sg22
g78
sg24
g25
sg26
g29
sg28
g29
sg30
S'Target_A_crosses_red_square_below_.png'
p84
sg32
g9
sg33
g34
sg35
g36
sg37
g38
sg39
g40
sg41
g40
sg42
g43
sa(dp85
g2
g3
sg4
S'Target_A_crosses_red_triangle_above_.png'
p86
sg6
g27
sg7
g8
sg11
S'All crosses are red.'
p87
sg13
S'All crosses are red.'
p88
sg15
g16
sg17
g25
sg19
g54
sg21
g54
sg22
g78
sg24
g25
sg26
g29
sg42
S'Filler-Target1'
p89
sg30
S'Target_A_crosses_red_square_above_.png'
p90
sg32
g9
sg33
g34
sg35
g57
sg37
g57
sg39
g49
sg41
g49
sg28
g29
sa(dp91
g2
g29
sg4
S'Target_A_crosses_blue_triangle_above_.png'
p92
sg6
g29
sg7
g8
sg11
S'The crosses are red.'
p93
sg13
S'The crosses are blue.'
p94
sg15
g16
sg17
g18
sg19
g20
sg21
g20
sg22
g78
sg24
g25
sg26
g3
sg28
g27
sg30
S'Target_A_crosses_green_square_above_.png'
p95
sg32
g9
sg33
g34
sg35
g36
sg37
g38
sg39
g49
sg41
g49
sg42
g43
sa(dp96
g2
g27
sg4
S'Target_A_crosses_red_triangle_below_.png'
p97
sg6
g3
sg7
g8
sg11
S'The crosses are green.'
p98
sg13
S'The crosses are red.'
p99
sg15
g16
sg17
g18
sg19
g20
sg21
g20
sg22
g78
sg24
g25
sg26
g29
sg28
g29
sg30
S'Target_A_crosses_red_square_below_.png'
p100
sg32
g9
sg33
g34
sg35
g36
sg37
g38
sg39
g40
sg41
g40
sg42
g43
sa(dp101
g2
g27
sg4
S'Target_A_crosses_red_triangle_below_.png'
p102
sg6
g3
sg7
g8
sg11
S'All crosses are green.'
p103
sg13
S'All crosses are red.'
p104
sg15
g16
sg17
g18
sg19
g54
sg21
g54
sg22
g78
sg24
g25
sg26
g29
sg42
S'Filler-Target1'
p105
sg30
S'Target_A_crosses_red_square_above_.png'
p106
sg32
g9
sg33
g34
sg35
g57
sg37
g57
sg39
g49
sg41
g40
sg28
g29
sa(dp107
g2
g27
sg19
S'surround their letter'
p108
sg6
g29
sg7
g8
sg4
S'Target_B_dots_red_.png'
p109
sg32
g10
sg11
S'Between 5 and 9 dots surround their letter.'
p110
sg33
g34
sg24
S'Target'
p111
sg13
S'Between 6 and 10 dots surround their letter.'
p112
sg15
S'Collective'
p113
sg22
g23
sg21
g108
sg17
g111
sg28
g29
sg30
S'Target_B_dots_blue_.png'
p114
sg35
S'6-10'
p115
sg37
g38
sg26
g27
sg42
S'Target2'
p116
sa(dp117
g2
g27
sg19
g108
sg6
g27
sg7
g8
sg4
S'Target_B_dots_red_.png'
p118
sg32
g10
sg11
S'Between 5 and 9 dots surround their letter.'
p119
sg33
g34
sg24
g111
sg13
S'Between 6 and 10 dots surround their letter.'
p120
sg15
g113
sg22
g23
sg21
g108
sg17
g111
sg28
g29
sg30
S'Target_B_dots_red_.png'
p121
sg35
g115
sg37
g38
sg26
g29
sg42
g116
sa(dp122
g2
g27
sg4
S'Target_A_dots_red_triangle_above_.png'
p123
sg6
g27
sg7
g8
sg11
S'All dots are red.'
p124
sg13
S'All dots are red.'
p125
sg15
g16
sg17
g25
sg19
g54
sg21
g54
sg22
g23
sg24
g25
sg26
g29
sg42
S'Filler-Target2'
p126
sg30
S'Target_A_dots_red_square_below_.png'
p127
sg32
g9
sg33
g34
sg35
g57
sg37
g57
sg39
g40
sg41
g49
sg28
g29
sa(dp128
g2
g27
sg19
g108
sg6
g27
sg7
g8
sg4
S'Target_B_dots_red_.png'
p129
sg32
g10
sg11
S'Between 5 and 9 dots surround their letter.'
p130
sg33
g34
sg24
g111
sg13
S'Between 6 and 10 dots surround their letter.'
p131
sg15
g113
sg22
g23
sg21
g108
sg17
g111
sg28
g29
sg30
S'Target_B_dots_red_.png'
p132
sg35
g115
sg37
g38
sg26
g29
sg42
g116
sa(dp133
g2
g29
sg19
g108
sg6
g27
sg7
g8
sg4
S'Target_B_dots_blue_.png'
p134
sg32
g10
sg11
S'Between 5 and 9 dots surround their letter.'
p135
sg33
g34
sg24
g111
sg13
S'Between 6 and 10 dots surround their letter.'
p136
sg15
g113
sg22
g23
sg21
g108
sg17
g111
sg28
g27
sg30
S'Target_B_dots_red_.png'
p137
sg35
g115
sg37
g38
sg26
g29
sg42
g116
sa(dp138
g2
g29
sg4
S'Target_A_dots_blue_triangle_below_.png'
p139
sg6
g27
sg7
g8
sg11
S'All dots are blue.'
p140
sg13
S'All dots are blue.'
p141
sg15
g16
sg17
g18
sg19
g54
sg21
g54
sg22
g23
sg24
g25
sg26
g29
sg42
S'Filler-Target2'
p142
sg30
S'Target_A_dots_red_square_below_.png'
p143
sg32
g9
sg33
g34
sg35
g57
sg37
g57
sg39
g40
sg41
g40
sg28
g27
sa(dp144
g2
g29
sg19
g108
sg6
g29
sg7
g8
sg4
S'Target_B_crosses_blue_.png'
p145
sg32
g10
sg11
S'Between 5 and 9 crosses surround their letter.'
p146
sg33
g34
sg24
g111
sg13
S'Between 6 and 10 crosses surround their letter.'
p147
sg15
g113
sg22
g78
sg21
g108
sg17
g111
sg28
g27
sg30
S'Target_B_crosses_blue_.png'
p148
sg35
g115
sg37
g38
sg26
g27
sg42
g116
sa(dp149
g2
g3
sg19
g108
sg6
g3
sg7
g8
sg4
S'Target_B_crosses_red_.png'
p150
sg32
g10
sg11
S'Between 5 and 9 crosses surround their letter.'
p151
sg33
g34
sg24
g111
sg13
S'Between 6 and 10 crosses surround their letter.'
p152
sg15
g113
sg22
g78
sg21
g108
sg17
g111
sg28
g29
sg30
S'Target_B_crosses_blue_.png'
p153
sg35
g115
sg37
g38
sg26
g27
sg42
g116
sa(dp154
g2
g3
sg19
g54
sg6
g3
sg7
g8
sg4
S'Target_B_crosses_red_.png'
p155
sg32
g10
sg11
S'All letters are green.'
p156
sg33
g34
sg24
g18
sg13
S'All letters are green.'
p157
sg15
g16
sg22
g78
sg21
g54
sg17
g18
sg42
S'Filler-Target2'
p158
sg30
S'Target_B_crosses_blue_.png'
p159
sg35
g57
sg37
g57
sg26
g27
sg28
g29
sa(dp160
g2
g27
sg19
g108
sg6
g29
sg7
g8
sg4
S'Target_B_crosses_green_.png'
p161
sg32
g10
sg11
S'Between 5 and 9 crosses surround their letter.'
p162
sg33
g34
sg24
g111
sg13
S'Between 6 and 10 crosses surround their letter.'
p163
sg15
g113
sg22
g78
sg21
g108
sg17
g111
sg28
g3
sg30
S'Target_B_crosses_green_.png'
p164
sg35
g115
sg37
g38
sg26
g3
sg42
g116
sa(dp165
g2
g27
sg19
g108
sg6
g27
sg7
g8
sg4
S'Target_B_crosses_green_.png'
p166
sg32
g10
sg11
S'Between 5 and 9 crosses surround their letter.'
p167
sg33
g34
sg24
g111
sg13
S'Between 6 and 10 crosses surround their letter.'
p168
sg15
g113
sg22
g78
sg21
g108
sg17
g111
sg28
g3
sg30
S'Target_B_crosses_green_.png'
p169
sg35
g115
sg37
g38
sg26
g3
sg42
g116
sa(dp170
g2
g27
sg4
S'Target_A_crosses_green_triangle_above_.png'
p171
sg6
g27
sg7
g8
sg11
S'All crosses are green.'
p172
sg13
S'All crosses are blue.'
p173
sg15
g16
sg17
g25
sg19
g54
sg21
g54
sg22
g78
sg24
g18
sg26
g3
sg42
S'Filler-Target2'
p174
sg30
S'Target_A_crosses_green_square_above_.png'
p175
sg32
g9
sg33
g34
sg35
g57
sg37
g57
sg39
g49
sg41
g49
sg28
g3
sa(dp176
g2
g27
sg4
S'False_A_dots_red_triangle_above_.png'
p177
sg6
g29
sg7
g8
sg11
S'Between 5 and 9 dots form a square.'
p178
sg13
S'Between 4 and 8 dots form a triangle.'
p179
sg15
g113
sg17
g18
sg19
S'form a triangle'
p180
sg21
S'form a square'
p181
sg22
g23
sg24
g18
sg26
g3
sg28
g29
sg30
S'False_A_dots_green_square_above_.png'
p182
sg32
g9
sg33
g34
sg35
g36
sg37
g38
sg39
g49
sg41
g49
sg42
S'Env-F'
p183
sa(dp184
g2
g27
sg4
S'False_A_dots_red_triangle_above_.png'
p185
sg6
g3
sg7
g8
sg11
S'Between 5 and 9 dots form a square.'
p186
sg13
S'Between 4 and 8 dots form a triangle.'
p187
sg15
g113
sg17
g18
sg19
g180
sg21
g181
sg22
g23
sg24
g18
sg26
g27
sg28
g29
sg30
S'False_A_dots_blue_square_above_.png'
p188
sg32
g9
sg33
g34
sg35
g36
sg37
g38
sg39
g49
sg41
g49
sg42
g183
sa(dp189
g2
g27
sg4
S'False_A_dots_red_triangle_above_.png'
p190
sg6
g3
sg7
g8
sg11
S'Some dots are blue.'
p191
sg13
S'Some dots are red.'
p192
sg15
g16
sg17
g25
sg19
g54
sg21
g54
sg22
g23
sg24
g25
sg26
g27
sg42
S'Filler-Env-F'
p193
sg30
S'False_A_dots_blue_square_above_.png'
p194
sg32
g9
sg33
g34
sg35
g57
sg37
g57
sg39
g49
sg41
g49
sg28
g29
sa(dp195
g2
g3
sg4
S'False_A_dots_red_triangle_below_.png'
p196
sg6
g29
sg7
g8
sg11
S'Between 5 and 9 dots form a square.'
p197
sg13
S'Between 4 and 8 dots form a triangle.'
p198
sg15
g113
sg17
g18
sg19
g180
sg21
g181
sg22
g23
sg24
g18
sg26
g27
sg28
g29
sg30
S'False_A_dots_blue_square_above_.png'
p199
sg32
g9
sg33
g34
sg35
g36
sg37
g38
sg39
g49
sg41
g40
sg42
g183
sa(dp200
g2
g29
sg4
S'False_A_dots_green_triangle_below_.png'
p201
sg6
g29
sg7
g8
sg11
S'Between 5 and 9 dots form a square.'
p202
sg13
S'Between 4 and 8 dots form a triangle.'
p203
sg15
g113
sg17
g18
sg19
g180
sg21
g181
sg22
g23
sg24
g18
sg26
g27
sg28
g3
sg30
S'False_A_dots_blue_square_above_.png'
p204
sg32
g9
sg33
g34
sg35
g36
sg37
g38
sg39
g49
sg41
g40
sg42
g183
sa(dp205
g2
g29
sg4
S'False_A_dots_green_triangle_below_.png'
p206
sg6
g29
sg7
g8
sg11
S'Some dots are blue.'
p207
sg13
S'Some dots are green.'
p208
sg15
g16
sg17
g25
sg19
g54
sg21
g54
sg22
g23
sg24
g25
sg26
g27
sg42
S'Filler-Env-F'
p209
sg30
S'False_A_dots_blue_square_below_.png'
p210
sg32
g9
sg33
g34
sg35
g57
sg37
g57
sg39
g40
sg41
g40
sg28
g3
sa(dp211
g2
g3
sg4
S'False_A_crosses_blue_triangle_above_.png'
p212
sg6
g29
sg7
g8
sg11
S'Between 5 and 9 crosses form a square.'
p213
sg13
S'Between 4 and 8 crosses form a triangle.'
p214
sg15
g113
sg17
g18
sg19
g180
sg21
g181
sg22
g78
sg24
g18
sg26
g3
sg28
g27
sg30
S'False_A_crosses_green_square_below_.png'
p215
sg32
g9
sg33
g34
sg35
g36
sg37
g38
sg39
g40
sg41
g49
sg42
g183
sa(dp216
g2
g3
sg4
S'False_A_crosses_red_triangle_above_.png'
p217
sg6
g3
sg7
g8
sg11
S'Between 5 and 9 crosses form a square.'
p218
sg13
S'Between 4 and 8 crosses form a triangle.'
p219
sg15
g113
sg17
g18
sg19
g180
sg21
g181
sg22
g78
sg24
g18
sg26
g27
sg28
g29
sg30
S'False_A_crosses_blue_square_above_.png'
p220
sg32
g9
sg33
g34
sg35
g36
sg37
g38
sg39
g49
sg41
g49
sg42
g183
sa(dp221
g2
g3
sg4
S'False_A_crosses_red_triangle_below_.png'
p222
sg6
g3
sg7
g8
sg11
S'Some crosses are blue.'
p223
sg13
S'Some crosses are red.'
p224
sg15
g16
sg17
g25
sg19
g54
sg21
g54
sg22
g78
sg24
g25
sg26
g27
sg42
S'Filler-Env-F'
p225
sg30
S'False_A_crosses_blue_square_above_.png'
p226
sg32
g9
sg33
g34
sg35
g57
sg37
g57
sg39
g49
sg41
g40
sg28
g29
sa(dp227
g2
g29
sg4
S'False_A_crosses_green_triangle_above_.png'
p228
sg6
g27
sg7
g8
sg11
S'Between 5 and 9 crosses form a square.'
p229
sg13
S'Between 4 and 8 crosses form a triangle.'
p230
sg15
g113
sg17
g18
sg19
g180
sg21
g181
sg22
g78
sg24
g18
sg26
g3
sg28
g3
sg30
S'False_A_crosses_green_square_above_.png'
p231
sg32
g9
sg33
g34
sg35
g36
sg37
g38
sg39
g49
sg41
g49
sg42
g183
sa(dp232
g2
g29
sg4
S'False_A_crosses_green_triangle_above_.png'
p233
sg6
g29
sg7
g8
sg11
S'Between 5 and 9 crosses form a square.'
p234
sg13
S'Between 4 and 8 crosses form a triangle.'
p235
sg15
g113
sg17
g18
sg19
g180
sg21
g181
sg22
g78
sg24
g18
sg26
g3
sg28
g3
sg30
S'False_A_crosses_green_square_below_.png'
p236
sg32
g9
sg33
g34
sg35
g36
sg37
g38
sg39
g40
sg41
g49
sg42
g183
sa(dp237
g2
g29
sg19
g54
sg6
g29
sg7
g8
sg4
S'False_B_crosses_green_.png'
p238
sg32
g10
sg11
S'Some letters are green.'
p239
sg33
g34
sg24
g25
sg13
S'Some letters are green.'
p240
sg15
g16
sg22
g78
sg21
g54
sg17
g25
sg42
S'Filler-Env-F'
p241
sg30
S'False_B_crosses_green_.png'
p242
sg35
g57
sg37
g57
sg26
g3
sg28
g3
sa(dp243
g2
g3
sg4
S'True_A_dots_red_triangle_below_.png'
p244
sg6
g29
sg7
g8
sg11
S'Between 5 and 9 dots form a square.'
p245
sg13
S'Between 4 and 8 dots form a triangle.'
p246
sg15
g113
sg17
g25
sg19
g180
sg21
g181
sg22
g23
sg24
g25
sg26
g3
sg28
g29
sg30
S'True_A_dots_green_square_below_.png'
p247
sg32
g9
sg33
g34
sg35
g36
sg37
g38
sg39
g40
sg41
g40
sg42
S'Env-T'
p248
sa(dp249
g2
g29
sg4
S'True_A_dots_green_triangle_above_.png'
p250
sg6
g3
sg7
g8
sg11
S'Between 5 and 9 dots form a square.'
p251
sg13
S'Between 4 and 8 dots form a triangle.'
p252
sg15
g113
sg17
g25
sg19
g180
sg21
g181
sg22
g23
sg24
g25
sg26
g27
sg28
g3
sg30
S'True_A_dots_blue_square_below_.png'
p253
sg32
g9
sg33
g34
sg35
g36
sg37
g38
sg39
g40
sg41
g49
sg42
g248
sa(dp254
g2
g29
sg4
S'True_A_dots_green_triangle_above_.png'
p255
sg6
g3
sg7
g8
sg11
S'Some dots are green.'
p256
sg13
S'Some dots are red.'
p257
sg15
g16
sg17
g18
sg19
g54
sg21
g54
sg22
g23
sg24
g18
sg26
g27
sg42
S'Filler-Env-T'
p258
sg30
S'True_A_dots_blue_square_below_.png'
p259
sg32
g9
sg33
g34
sg35
g57
sg37
g57
sg39
g40
sg41
g49
sg28
g3
sa(dp260
g2
g27
sg4
S'True_A_dots_red_triangle_above_.png'
p261
sg6
g27
sg7
g8
sg11
S'Between 5 and 9 dots form a square.'
p262
sg13
S'Between 4 and 8 dots form a triangle.'
p263
sg15
g113
sg17
g25
sg19
g180
sg21
g181
sg22
g23
sg24
g25
sg26
g29
sg28
g29
sg30
S'True_A_dots_red_square_below_.png'
p264
sg32
g9
sg33
g34
sg35
g36
sg37
g38
sg39
g40
sg41
g49
sg42
g248
sa(dp265
g2
g29
sg4
S'True_A_dots_green_triangle_below_.png'
p266
sg6
g3
sg7
g8
sg11
S'Between 5 and 9 dots form a square.'
p267
sg13
S'Between 4 and 8 dots form a triangle.'
p268
sg15
g113
sg17
g25
sg19
g180
sg21
g181
sg22
g23
sg24
g25
sg26
g27
sg28
g3
sg30
S'True_A_dots_blue_square_above_.png'
p269
sg32
g9
sg33
g34
sg35
g36
sg37
g38
sg39
g49
sg41
g40
sg42
g248
sa(dp270
g2
g29
sg4
S'True_A_dots_green_triangle_below_.png'
p271
sg6
g3
sg7
g8
sg11
S'Some dots are green.'
p272
sg13
S'Some dots are red.'
p273
sg15
g16
sg17
g18
sg19
g54
sg21
g54
sg22
g23
sg24
g18
sg26
g27
sg42
S'Filler-Env-T'
p274
sg30
S'True_A_dots_blue_square_above_.png'
p275
sg32
g9
sg33
g34
sg35
g57
sg37
g57
sg39
g49
sg41
g40
sg28
g3
sa(dp276
g2
g29
sg4
S'True_A_crosses_blue_triangle_above_.png'
p277
sg6
g27
sg7
g8
sg11
S'Between 5 and 9 crosses form a square.'
p278
sg13
S'Between 4 and 8 crosses form a triangle.'
p279
sg15
g113
sg17
g25
sg19
g180
sg21
g181
sg22
g78
sg24
g25
sg26
g29
sg28
g27
sg30
S'True_A_crosses_red_square_below_.png'
p280
sg32
g9
sg33
g34
sg35
g36
sg37
g38
sg39
g40
sg41
g49
sg42
g248
sa(dp281
g2
g3
sg4
S'True_A_crosses_blue_triangle_below_.png'
p282
sg6
g3
sg7
g8
sg11
S'Between 5 and 9 crosses form a square.'
p283
sg13
S'Between 4 and 8 crosses form a triangle.'
p284
sg15
g113
sg17
g25
sg19
g180
sg21
g181
sg22
g78
sg24
g25
sg26
g29
sg28
g27
sg30
S'True_A_crosses_red_square_above_.png'
p285
sg32
g9
sg33
g34
sg35
g36
sg37
g38
sg39
g49
sg41
g40
sg42
g248
sa(dp286
g2
g3
sg4
S'True_A_crosses_blue_triangle_below_.png'
p287
sg6
g3
sg7
g8
sg11
S'Some crosses are green.'
p288
sg13
S'Some crosses are green.'
p289
sg15
g16
sg17
g18
sg19
g54
sg21
g54
sg22
g78
sg24
g18
sg26
g29
sg42
S'Filler-Env-T'
p290
sg30
S'True_A_crosses_red_square_above_.png'
p291
sg32
g9
sg33
g34
sg35
g57
sg37
g57
sg39
g49
sg41
g40
sg28
g27
sa(dp292
g2
g29
sg4
S'True_A_crosses_blue_triangle_below_.png'
p293
sg6
g29
sg7
g8
sg11
S'Between 5 and 9 crosses form a square.'
p294
sg13
S'Between 4 and 8 crosses form a triangle.'
p295
sg15
g113
sg17
g25
sg19
g180
sg21
g181
sg22
g78
sg24
g25
sg26
g27
sg28
g27
sg30
S'True_A_crosses_blue_square_below_.png'
p296
sg32
g9
sg33
g34
sg35
g36
sg37
g38
sg39
g40
sg41
g40
sg42
g248
sa(dp297
g2
g29
sg4
S'True_A_crosses_green_triangle_above_.png'
p298
sg6
g27
sg7
g8
sg11
S'Between 5 and 9 crosses form a square.'
p299
sg13
S'Between 4 and 8 crosses form a triangle.'
p300
sg15
g113
sg17
g25
sg19
g180
sg21
g181
sg22
g78
sg24
g25
sg26
g29
sg28
g3
sg30
S'True_A_crosses_red_square_above_.png'
p301
sg32
g9
sg33
g34
sg35
g36
sg37
g38
sg39
g49
sg41
g49
sg42
g248
sa(dp302
g2
g29
sg4
S'True_A_crosses_green_triangle_above_.png'
p303
sg6
g27
sg7
g8
sg11
S'Some crosses are blue.'
p304
sg13
S'Some crosses are red.'
p305
sg15
g16
sg17
g18
sg19
g54
sg21
g54
sg22
g78
sg24
g18
sg26
g29
sg42
S'Filler-Env-T'
p306
sg30
S'True_A_crosses_red_square_above_.png'
p307
sg32
g9
sg33
g34
sg35
g57
sg37
g57
sg39
g49
sg41
g49
sg28
g3
sa.