(lp0
(dp1
S'False_Color_1'
p2
S'blue'
p3
sS'PREDICATE_1'
p4
S'are'
p5
sS'False_Color_2'
p6
S'red'
p7
sS'GROUP'
p8
(lp9
S'B'
p10
aS'A'
p11
asS'IMAGE_1'
p12
S'Target_B_dots_green_.png'
p13
sS'IMAGE_TYPE'
p14
g10
sS'S2'
p15
S'The letters are red.'
p16
sS'STUDY'
p17
S'1'
p18
sS'TRUTH_VALUE_1'
p19
S'True'
p20
sS'S1'
p21
S'The letters are green.'
p22
sS'PREDICATE_TYPE'
p23
S'Baseline'
p24
sS'SHAPE'
p25
S'dots'
p26
sS'PREDICATE_2'
p27
g5
sS'TRUTH_VALUE_2'
p28
S'False'
p29
sS'Color_1'
p30
S'green'
p31
sS'IMAGE_2'
p32
S'Target_B_dots_green_.png'
p33
sS'N1'
p34
S'4-8'
p35
sS'N2'
p36
S'5-9'
p37
sS'Color_2'
p38
g31
sS'CONDITION'
p39
S'Target1'
p40
sa(dp41
g2
g7
sg4
g5
sg6
g7
sg8
g9
sg12
S'Target_B_dots_blue_.png'
p42
sg14
g10
sg15
S'The letters are red.'
p43
sg17
g18
sg19
g20
sg21
S'The letters are blue.'
p44
sg23
g24
sg25
g26
sg27
g5
sg28
g29
sg30
g3
sg32
S'Target_B_dots_green_.png'
p45
sg34
g35
sg36
g37
sg38
g31
sg39
g40
sa(dp46
g2
g7
sg4
S'X'
p47
sg6
g7
sg8
g9
sg12
S'Target_B_dots_blue_.png'
p48
sg14
g10
sg15
S'All letters are red.'
p49
sg17
g18
sg19
g29
sg21
S'All letters are red.'
p50
sg23
g24
sg25
g26
sg27
g47
sg28
g29
sg39
S'Filler-Target1'
p51
sg32
S'Target_B_dots_green_.png'
p52
sg34
S'X-X'
p53
sg36
g53
sg38
g31
sg30
g3
sa(dp54
g2
g7
sg4
g5
sg6
g3
sg8
g9
sg12
S'Target_B_dots_green_.png'
p55
sg14
g10
sg15
S'The letters are blue.'
p56
sg17
g18
sg19
g20
sg21
S'The letters are green.'
p57
sg23
g24
sg25
g26
sg27
g5
sg28
g29
sg30
g31
sg32
S'Target_B_dots_green_.png'
p58
sg34
g35
sg36
g37
sg38
g31
sg39
g40
sa(dp59
g2
g3
sg4
g5
sg6
g3
sg8
g9
sg12
S'Target_B_dots_green_.png'
p60
sg14
g10
sg15
S'The letters are blue.'
p61
sg17
g18
sg19
g20
sg21
S'The letters are green.'
p62
sg23
g24
sg25
g26
sg27
g5
sg28
g29
sg30
g31
sg32
S'Target_B_dots_green_.png'
p63
sg34
g35
sg36
g37
sg38
g31
sg39
g40
sa(dp64
g2
g3
sg4
g47
sg6
g3
sg8
g9
sg12
S'Target_B_dots_green_.png'
p65
sg14
g10
sg15
S'All letters are blue.'
p66
sg17
g18
sg19
g20
sg21
S'All letters are green.'
p67
sg23
g24
sg25
g26
sg27
g47
sg28
g29
sg39
S'Filler-Target1'
p68
sg32
S'Target_B_dots_green_.png'
p69
sg34
g53
sg36
g53
sg38
g31
sg30
g31
sa(dp70
g2
g7
sg4
g5
sg6
g7
sg8
g9
sg12
S'Target_B_crosses_blue_.png'
p71
sg14
g10
sg15
S'The letters are red.'
p72
sg17
g18
sg19
g20
sg21
S'The letters are blue.'
p73
sg23
g24
sg25
S'crosses'
p74
sg27
g5
sg28
g29
sg30
g3
sg32
S'Target_B_crosses_green_.png'
p75
sg34
g35
sg36
g37
sg38
g31
sg39
g40
sa(dp76
g2
g7
sg4
g5
sg6
g31
sg8
g9
sg12
S'Target_B_crosses_green_.png'
p77
sg14
g10
sg15
S'The letters are green.'
p78
sg17
g18
sg19
g20
sg21
S'The letters are green.'
p79
sg23
g24
sg25
g74
sg27
g5
sg28
g29
sg30
g31
sg32
S'Target_B_crosses_blue_.png'
p80
sg34
g35
sg36
g37
sg38
g3
sg39
g40
sa(dp81
g2
g7
sg4
g47
sg6
g31
sg8
g9
sg12
S'Target_B_crosses_green_.png'
p82
sg14
g10
sg15
S'All letters are blue.'
p83
sg17
g18
sg19
g29
sg21
S'All letters are red.'
p84
sg23
g24
sg25
g74
sg27
g47
sg28
g20
sg39
S'Filler-Target1'
p85
sg32
S'Target_B_crosses_blue_.png'
p86
sg34
g53
sg36
g53
sg38
g3
sg30
g31
sa(dp87
g2
g31
sg4
g5
sg6
g7
sg8
g9
sg12
S'Target_B_crosses_blue_.png'
p88
sg14
g10
sg15
S'The letters are red.'
p89
sg17
g18
sg19
g20
sg21
S'The letters are blue.'
p90
sg23
g24
sg25
g74
sg27
g5
sg28
g29
sg30
g3
sg32
S'Target_B_crosses_blue_.png'
p91
sg34
g35
sg36
g37
sg38
g3
sg39
g40
sa(dp92
g2
g3
sg4
g5
sg6
g7
sg8
g9
sg12
S'Target_B_crosses_red_.png'
p93
sg14
g10
sg15
S'The letters are red.'
p94
sg17
g18
sg19
g20
sg21
S'The letters are red.'
p95
sg23
g24
sg25
g74
sg27
g5
sg28
g29
sg30
g7
sg32
S'Target_B_crosses_green_.png'
p96
sg34
g35
sg36
g37
sg38
g31
sg39
g40
sa(dp97
g2
g3
sg4
g47
sg6
g7
sg8
g9
sg12
S'Target_B_crosses_red_.png'
p98
sg14
g10
sg15
S'All letters are red.'
p99
sg17
g18
sg19
g20
sg21
S'All letters are red.'
p100
sg23
g24
sg25
g74
sg27
g47
sg28
g29
sg39
S'Filler-Target1'
p101
sg32
S'Target_B_crosses_green_.png'
p102
sg34
g53
sg36
g53
sg38
g31
sg30
g7
sa(dp103
g2
g3
sg12
S'Target_A_dots_red_triangle_above_.png'
p104
sg6
g3
sg8
g9
sg15
S'Between 5 and 9 dots form a square.'
p105
sg21
S'Between 4 and 8 dots form a triangle.'
p106
sg23
S'Collective'
p107
sg28
S'Target'
p108
sg4
S'form a triangle'
p109
sg27
S'form a square'
p110
sg25
g26
sg19
g108
sg38
g31
sg30
g7
sg32
S'Target_A_dots_green_square_below_.png'
p111
sg14
g11
sg17
g18
sg34
g35
sg36
g37
sS'KEY_PRED_2'
p112
S'below'
p113
sS'KEY_PRED_1'
p114
S'above'
p115
sg39
S'Target2'
p116
sa(dp117
g2
g31
sg12
S'Target_A_dots_blue_triangle_below_.png'
p118
sg6
g3
sg8
g9
sg15
S'Between 5 and 9 dots form a square.'
p119
sg21
S'Between 4 and 8 dots form a triangle.'
p120
sg23
g107
sg28
g108
sg4
g109
sg27
g110
sg25
g26
sg19
g108
sg38
g7
sg30
g3
sg32
S'Target_A_dots_red_square_above_.png'
p121
sg14
g11
sg17
g18
sg34
g35
sg36
g37
sg112
g115
sg114
g113
sg39
g116
sa(dp122
g2
g31
sg4
g47
sg6
g3
sg8
g9
sg12
S'Target_B_dots_blue_.png'
p123
sg14
g10
sg15
S'All letters are red.'
p124
sg17
g18
sg19
g29
sg21
S'All letters are green.'
p125
sg23
g24
sg25
g26
sg27
g47
sg28
g20
sg39
S'Filler-Target2'
p126
sg32
S'Target_B_dots_red_.png'
p127
sg34
g53
sg36
g53
sg38
g7
sg30
g3
sa(dp128
g2
g3
sg12
S'Target_A_dots_red_triangle_below_.png'
p129
sg6
g7
sg8
g9
sg15
S'Between 5 and 9 dots form a square.'
p130
sg21
S'Between 4 and 8 dots form a triangle.'
p131
sg23
g107
sg28
g108
sg4
g109
sg27
g110
sg25
g26
sg19
g108
sg38
g31
sg30
g7
sg32
S'Target_A_dots_green_square_above_.png'
p132
sg14
g11
sg17
g18
sg34
g35
sg36
g37
sg112
g115
sg114
g113
sg39
g116
sa(dp133
g2
g31
sg12
S'Target_A_dots_blue_triangle_below_.png'
p134
sg6
g31
sg8
g9
sg15
S'Between 5 and 9 dots form a square.'
p135
sg21
S'Between 4 and 8 dots form a triangle.'
p136
sg23
g107
sg28
g108
sg4
g109
sg27
g110
sg25
g26
sg19
g108
sg38
g3
sg30
g3
sg32
S'Target_A_dots_blue_square_below_.png'
p137
sg14
g11
sg17
g18
sg34
g35
sg36
g37
sg112
g113
sg114
g113
sg39
g116
sa(dp138
g2
g31
sg12
S'Target_A_dots_blue_triangle_below_.png'
p139
sg6
g31
sg8
g9
sg15
S'All dots are blue.'
p140
sg21
S'All dots are green.'
p141
sg23
g24
sg28
g20
sg4
g47
sg27
g47
sg25
g26
sg19
g29
sg38
g3
sg39
S'Filler-Target2'
p142
sg32
S'Target_A_dots_blue_square_below_.png'
p143
sg14
g11
sg17
g18
sg34
g53
sg36
g53
sg112
g113
sg114
g113
sg30
g3
sa(dp144
g2
g7
sg12
S'Target_A_crosses_blue_triangle_above_.png'
p145
sg6
g7
sg8
g9
sg15
S'Between 5 and 9 crosses form a square.'
p146
sg21
S'Between 4 and 8 crosses form a triangle.'
p147
sg23
g107
sg28
g108
sg4
g109
sg27
g110
sg25
g74
sg19
g108
sg38
g3
sg30
g3
sg32
S'Target_A_crosses_blue_square_below_.png'
p148
sg14
g11
sg17
g18
sg34
g35
sg36
g37
sg112
g113
sg114
g115
sg39
g116
sa(dp149
g2
g31
sg12
S'Target_A_crosses_red_triangle_below_.png'
p150
sg6
g7
sg8
g9
sg15
S'Between 5 and 9 crosses form a square.'
p151
sg21
S'Between 4 and 8 crosses form a triangle.'
p152
sg23
g107
sg28
g108
sg4
g109
sg27
g110
sg25
g74
sg19
g108
sg38
g3
sg30
g7
sg32
S'Target_A_crosses_blue_square_below_.png'
p153
sg14
g11
sg17
g18
sg34
g35
sg36
g37
sg112
g113
sg114
g113
sg39
g116
sa(dp154
g2
g31
sg12
S'Target_A_crosses_red_triangle_above_.png'
p155
sg6
g7
sg8
g9
sg15
S'All crosses are red.'
p156
sg21
S'All crosses are green.'
p157
sg23
g24
sg28
g29
sg4
g47
sg27
g47
sg25
g74
sg19
g29
sg38
g3
sg39
S'Filler-Target2'
p158
sg32
S'Target_A_crosses_blue_square_above_.png'
p159
sg14
g11
sg17
g18
sg34
g53
sg36
g53
sg112
g115
sg114
g115
sg30
g7
sa(dp160
g2
g31
sg12
S'Target_A_crosses_blue_triangle_above_.png'
p161
sg6
g31
sg8
g9
sg15
S'Between 5 and 9 crosses form a square.'
p162
sg21
S'Between 4 and 8 crosses form a triangle.'
p163
sg23
g107
sg28
g108
sg4
g109
sg27
g110
sg25
g74
sg19
g108
sg38
g3
sg30
g3
sg32
S'Target_A_crosses_blue_square_below_.png'
p164
sg14
g11
sg17
g18
sg34
g35
sg36
g37
sg112
g113
sg114
g115
sg39
g116
sa(dp165
g2
g7
sg12
S'Target_A_crosses_blue_triangle_below_.png'
p166
sg6
g7
sg8
g9
sg15
S'Between 5 and 9 crosses form a square.'
p167
sg21
S'Between 4 and 8 crosses form a triangle.'
p168
sg23
g107
sg28
g108
sg4
g109
sg27
g110
sg25
g74
sg19
g108
sg38
g3
sg30
g3
sg32
S'Target_A_crosses_blue_square_below_.png'
p169
sg14
g11
sg17
g18
sg34
g35
sg36
g37
sg112
g113
sg114
g113
sg39
g116
sa(dp170
g2
g7
sg12
S'Target_A_crosses_blue_triangle_below_.png'
p171
sg6
g7
sg8
g9
sg15
S'All crosses are red.'
p172
sg21
S'All crosses are red.'
p173
sg23
g24
sg28
g29
sg4
g47
sg27
g47
sg25
g74
sg19
g29
sg38
g3
sg39
S'Filler-Target2'
p174
sg32
S'Target_A_crosses_blue_square_above_.png'
p175
sg14
g11
sg17
g18
sg34
g53
sg36
g53
sg112
g115
sg114
g113
sg30
g3
sa(dp176
g2
g3
sg4
S'surround their letter'
p177
sg6
g7
sg8
g9
sg12
S'False_B_dots_red_.png'
p178
sg14
g10
sg15
S'Between 5 and 9 dots surround their letter.'
p179
sg17
g18
sg19
g29
sg21
S'Between 6 and 10 dots surround their letter.'
p180
sg23
g107
sg25
g26
sg27
g177
sg28
g29
sg30
g7
sg32
S'False_B_dots_green_.png'
p181
sg34
S'6-10'
p182
sg36
g37
sg38
g31
sg39
S'Env-F'
p183
sa(dp184
g2
g7
sg4
g177
sg6
g7
sg8
g9
sg12
S'False_B_dots_green_.png'
p185
sg14
g10
sg15
S'Between 5 and 9 dots surround their letter.'
p186
sg17
g18
sg19
g29
sg21
S'Between 6 and 10 dots surround their letter.'
p187
sg23
g107
sg25
g26
sg27
g177
sg28
g29
sg30
g31
sg32
S'False_B_dots_green_.png'
p188
sg34
g182
sg36
g37
sg38
g31
sg39
g183
sa(dp189
g2
g7
sg4
g47
sg6
g7
sg8
g9
sg12
S'False_B_dots_green_.png'
p190
sg14
g10
sg15
S'Some letters are green.'
p191
sg17
g18
sg19
g20
sg21
S'Some letters are green.'
p192
sg23
g24
sg25
g26
sg27
g47
sg28
g20
sg39
S'Filler-Env-F'
p193
sg32
S'False_B_dots_green_.png'
p194
sg34
g53
sg36
g53
sg38
g31
sg30
g31
sa(dp195
g2
g7
sg4
g177
sg6
g31
sg8
g9
sg12
S'False_B_dots_blue_.png'
p196
sg14
g10
sg15
S'Between 5 and 9 dots surround their letter.'
p197
sg17
g18
sg19
g29
sg21
S'Between 6 and 10 dots surround their letter.'
p198
sg23
g107
sg25
g26
sg27
g177
sg28
g29
sg30
g3
sg32
S'False_B_dots_blue_.png'
p199
sg34
g182
sg36
g37
sg38
g3
sg39
g183
sa(dp200
g2
g7
sg4
g177
sg6
g7
sg8
g9
sg12
S'False_B_dots_blue_.png'
p201
sg14
g10
sg15
S'Between 5 and 9 dots surround their letter.'
p202
sg17
g18
sg19
g29
sg21
S'Between 6 and 10 dots surround their letter.'
p203
sg23
g107
sg25
g26
sg27
g177
sg28
g29
sg30
g3
sg32
S'False_B_dots_blue_.png'
p204
sg34
g182
sg36
g37
sg38
g3
sg39
g183
sa(dp205
g2
g7
sg12
S'False_A_dots_blue_triangle_below_.png'
p206
sg6
g7
sg8
g9
sg15
S'Some dots are blue.'
p207
sg21
S'Some dots are blue.'
p208
sg23
g24
sg28
g20
sg4
g47
sg27
g47
sg25
g26
sg19
g20
sg38
g3
sg39
S'Filler-Env-F'
p209
sg32
S'False_A_dots_blue_square_below_.png'
p210
sg14
g11
sg17
g18
sg34
g53
sg36
g53
sg112
g113
sg114
g113
sg30
g3
sa(dp211
g2
g31
sg4
g177
sg6
g7
sg8
g9
sg12
S'False_B_crosses_blue_.png'
p212
sg14
g10
sg15
S'Between 5 and 9 crosses surround their letter.'
p213
sg17
g18
sg19
g29
sg21
S'Between 6 and 10 crosses surround their letter.'
p214
sg23
g107
sg25
g74
sg27
g177
sg28
g29
sg30
g3
sg32
S'False_B_crosses_green_.png'
p215
sg34
g182
sg36
g37
sg38
g31
sg39
g183
sa(dp216
g2
g7
sg4
g177
sg6
g7
sg8
g9
sg12
S'False_B_crosses_green_.png'
p217
sg14
g10
sg15
S'Between 5 and 9 crosses surround their letter.'
p218
sg17
g18
sg19
g29
sg21
S'Between 6 and 10 crosses surround their letter.'
p219
sg23
g107
sg25
g74
sg27
g177
sg28
g29
sg30
g31
sg32
S'False_B_crosses_green_.png'
p220
sg34
g182
sg36
g37
sg38
g31
sg39
g183
sa(dp221
g2
g7
sg4
g47
sg6
g7
sg8
g9
sg12
S'False_B_crosses_green_.png'
p222
sg14
g10
sg15
S'Some letters are green.'
p223
sg17
g18
sg19
g20
sg21
S'Some letters are green.'
p224
sg23
g24
sg25
g74
sg27
g47
sg28
g20
sg39
S'Filler-Env-F'
p225
sg32
S'False_B_crosses_green_.png'
p226
sg34
g53
sg36
g53
sg38
g31
sg30
g31
sa(dp227
g2
g3
sg4
g177
sg6
g3
sg8
g9
sg12
S'False_B_crosses_red_.png'
p228
sg14
g10
sg15
S'Between 5 and 9 crosses surround their letter.'
p229
sg17
g18
sg19
g29
sg21
S'Between 6 and 10 crosses surround their letter.'
p230
sg23
g107
sg25
g74
sg27
g177
sg28
g29
sg30
g7
sg32
S'False_B_crosses_green_.png'
p231
sg34
g182
sg36
g37
sg38
g31
sg39
g183
sa(dp232
g2
g3
sg4
g177
sg6
g7
sg8
g9
sg12
S'False_B_crosses_green_.png'
p233
sg14
g10
sg15
S'Between 5 and 9 crosses surround their letter.'
p234
sg17
g18
sg19
g29
sg21
S'Between 6 and 10 crosses surround their letter.'
p235
sg23
g107
sg25
g74
sg27
g177
sg28
g29
sg30
g31
sg32
S'False_B_crosses_blue_.png'
p236
sg34
g182
sg36
g37
sg38
g3
sg39
g183
sa(dp237
g2
g3
sg4
g47
sg6
g7
sg8
g9
sg12
S'False_B_crosses_green_.png'
p238
sg14
g10
sg15
S'Some letters are blue.'
p239
sg17
g18
sg19
g20
sg21
S'Some letters are green.'
p240
sg23
g24
sg25
g74
sg27
g47
sg28
g20
sg39
S'Filler-Env-F'
p241
sg32
S'False_B_crosses_blue_.png'
p242
sg34
g53
sg36
g53
sg38
g3
sg30
g31
sa(dp243
g2
g31
sg4
g177
sg6
g3
sg8
g9
sg12
S'True_B_dots_blue_.png'
p244
sg14
g10
sg15
S'Between 5 and 9 dots surround their letter.'
p245
sg17
g18
sg19
g20
sg21
S'Between 6 and 10 dots surround their letter.'
p246
sg23
g107
sg25
g26
sg27
g177
sg28
g20
sg30
g3
sg32
S'True_B_dots_red_.png'
p247
sg34
g182
sg36
g37
sg38
g7
sg39
S'Env-T'
p248
sa(dp249
g2
g7
sg4
g177
sg6
g31
sg8
g9
sg12
S'True_B_dots_green_.png'
p250
sg14
g10
sg15
S'Between 5 and 9 dots surround their letter.'
p251
sg17
g18
sg19
g20
sg21
S'Between 6 and 10 dots surround their letter.'
p252
sg23
g107
sg25
g26
sg27
g177
sg28
g20
sg30
g31
sg32
S'True_B_dots_red_.png'
p253
sg34
g182
sg36
g37
sg38
g7
sg39
g248
sa(dp254
g2
g7
sg4
g47
sg6
g31
sg8
g9
sg12
S'True_B_dots_green_.png'
p255
sg14
g10
sg15
S'Some letters are green.'
p256
sg17
g18
sg19
g29
sg21
S'Some letters are red.'
p257
sg23
g24
sg25
g26
sg27
g47
sg28
g29
sg39
S'Filler-Env-T'
p258
sg32
S'True_B_dots_red_.png'
p259
sg34
g53
sg36
g53
sg38
g7
sg30
g31
sa(dp260
g2
g3
sg4
g177
sg6
g7
sg8
g9
sg12
S'True_B_dots_red_.png'
p261
sg14
g10
sg15
S'Between 5 and 9 dots surround their letter.'
p262
sg17
g18
sg19
g20
sg21
S'Between 6 and 10 dots surround their letter.'
p263
sg23
g107
sg25
g26
sg27
g177
sg28
g20
sg30
g7
sg32
S'True_B_dots_green_.png'
p264
sg34
g182
sg36
g37
sg38
g31
sg39
g248
sa(dp265
g2
g7
sg4
g177
sg6
g31
sg8
g9
sg12
S'True_B_dots_blue_.png'
p266
sg14
g10
sg15
S'Between 5 and 9 dots surround their letter.'
p267
sg17
g18
sg19
g20
sg21
S'Between 6 and 10 dots surround their letter.'
p268
sg23
g107
sg25
g26
sg27
g177
sg28
g20
sg30
g3
sg32
S'True_B_dots_blue_.png'
p269
sg34
g182
sg36
g37
sg38
g3
sg39
g248
sa(dp270
g2
g7
sg4
g47
sg6
g31
sg8
g9
sg12
S'True_B_dots_blue_.png'
p271
sg14
g10
sg15
S'Some letters are green.'
p272
sg17
g18
sg19
g29
sg21
S'Some letters are red.'
p273
sg23
g24
sg25
g26
sg27
g47
sg28
g29
sg39
S'Filler-Env-T'
p274
sg32
S'True_B_dots_blue_.png'
p275
sg34
g53
sg36
g53
sg38
g3
sg30
g3
sa(dp276
g2
g3
sg4
g177
sg6
g31
sg8
g9
sg12
S'True_B_crosses_red_.png'
p277
sg14
g10
sg15
S'Between 5 and 9 crosses surround their letter.'
p278
sg17
g18
sg19
g20
sg21
S'Between 6 and 10 crosses surround their letter.'
p279
sg23
g107
sg25
g74
sg27
g177
sg28
g20
sg30
g7
sg32
S'True_B_crosses_blue_.png'
p280
sg34
g182
sg36
g37
sg38
g3
sg39
g248
sa(dp281
g2
g31
sg4
g177
sg6
g7
sg8
g9
sg12
S'True_B_crosses_blue_.png'
p282
sg14
g10
sg15
S'Between 5 and 9 crosses surround their letter.'
p283
sg17
g18
sg19
g20
sg21
S'Between 6 and 10 crosses surround their letter.'
p284
sg23
g107
sg25
g74
sg27
g177
sg28
g20
sg30
g3
sg32
S'True_B_crosses_green_.png'
p285
sg34
g182
sg36
g37
sg38
g31
sg39
g248
sa(dp286
g2
g31
sg4
g47
sg6
g7
sg8
g9
sg12
S'True_B_crosses_blue_.png'
p287
sg14
g10
sg15
S'Some letters are red.'
p288
sg17
g18
sg19
g29
sg21
S'Some letters are green.'
p289
sg23
g24
sg25
g74
sg27
g47
sg28
g29
sg39
S'Filler-Env-T'
p290
sg32
S'True_B_crosses_green_.png'
p291
sg34
g53
sg36
g53
sg38
g31
sg30
g3
sa(dp292
g2
g7
sg4
g177
sg6
g7
sg8
g9
sg12
S'True_B_crosses_blue_.png'
p293
sg14
g10
sg15
S'Between 5 and 9 crosses surround their letter.'
p294
sg17
g18
sg19
g20
sg21
S'Between 6 and 10 crosses surround their letter.'
p295
sg23
g107
sg25
g74
sg27
g177
sg28
g20
sg30
g3
sg32
S'True_B_crosses_blue_.png'
p296
sg34
g182
sg36
g37
sg38
g3
sg39
g248
sa(dp297
g2
g31
sg4
g177
sg6
g7
sg8
g9
sg12
S'True_B_crosses_blue_.png'
p298
sg14
g10
sg15
S'Between 5 and 9 crosses surround their letter.'
p299
sg17
g18
sg19
g20
sg21
S'Between 6 and 10 crosses surround their letter.'
p300
sg23
g107
sg25
g74
sg27
g177
sg28
g20
sg30
g3
sg32
S'True_B_crosses_blue_.png'
p301
sg34
g182
sg36
g37
sg38
g3
sg39
g248
sa(dp302
g2
g31
sg4
g47
sg6
g7
sg8
g9
sg12
S'True_B_crosses_blue_.png'
p303
sg14
g10
sg15
S'Some letters are red.'
p304
sg17
g18
sg19
g29
sg21
S'Some letters are green.'
p305
sg23
g24
sg25
g74
sg27
g47
sg28
g29
sg39
S'Filler-Env-T'
p306
sg32
S'True_B_crosses_blue_.png'
p307
sg34
g53
sg36
g53
sg38
g3
sg30
g3
sa.