(lp0
(dp1
S'False_Color_1'
p2
S'blue'
p3
sS'IMAGE_1'
p4
S'Target_A_dots_green_triangle_above_.png'
p5
sS'False_Color_2'
p6
S'green'
p7
sS'GROUP'
p8
(lp9
S'C'
p10
aS'D'
p11
asS'S2'
p12
S'The dots are green.'
p13
sS'S1'
p14
S'The dots are green.'
p15
sS'PREDICATE_TYPE'
p16
S'Baseline'
p17
sS'TRUTH_VALUE_2'
p18
S'False'
p19
sS'PREDICATE_1'
p20
S'are'
p21
sS'PREDICATE_2'
p22
g21
sS'SHAPE'
p23
S'dots'
p24
sS'TRUTH_VALUE_1'
p25
S'True'
p26
sS'Color_2'
p27
g3
sS'Color_1'
p28
g7
sS'IMAGE_2'
p29
S'Target_A_dots_blue_square_below_.png'
p30
sS'IMAGE_TYPE'
p31
g10
sS'STUDY'
p32
S'1'
p33
sS'N1'
p34
S'4-8'
p35
sS'N2'
p36
S'5-9'
p37
sS'KEY_PRED_2'
p38
S'below'
p39
sS'KEY_PRED_1'
p40
S'above'
p41
sS'CONDITION'
p42
S'Target1'
p43
sa(dp44
g2
S'red'
p45
sg4
S'Target_A_dots_green_triangle_below_.png'
p46
sg6
g7
sg8
g9
sg12
S'The dots are green.'
p47
sg14
S'The dots are green.'
p48
sg16
g17
sg18
g19
sg20
g21
sg22
g21
sg23
g24
sg25
g26
sg27
g3
sg28
g7
sg29
S'Target_A_dots_blue_square_above_.png'
p49
sg31
g10
sg32
g33
sg34
g35
sg36
g37
sg38
g41
sg40
g39
sg42
g43
sa(dp50
g2
g45
sg4
S'Target_A_dots_green_triangle_below_.png'
p51
sg6
g7
sg8
g9
sg12
S'All dots are green.'
p52
sg14
S'All dots are green.'
p53
sg16
g17
sg18
g19
sg20
S'X'
p54
sg22
g54
sg23
g24
sg25
g26
sg27
g3
sg42
S'Filler-Target1'
p55
sg29
S'Target_A_dots_blue_square_below_.png'
p56
sg31
g10
sg32
g33
sg34
S'X-X'
p57
sg36
g57
sg38
g39
sg40
g39
sg28
g7
sa(dp58
g2
g3
sg4
S'Target_A_dots_green_triangle_above_.png'
p59
sg6
g3
sg8
g9
sg12
S'The dots are blue.'
p60
sg14
S'The dots are green.'
p61
sg16
g17
sg18
g19
sg20
g21
sg22
g21
sg23
g24
sg25
g26
sg27
g7
sg28
g7
sg29
S'Target_A_dots_green_square_above_.png'
p62
sg31
g10
sg32
g33
sg34
g35
sg36
g37
sg38
g41
sg40
g41
sg42
g43
sa(dp63
g2
g7
sg4
S'Target_A_dots_blue_triangle_above_.png'
p64
sg6
g45
sg8
g9
sg12
S'The dots are red.'
p65
sg14
S'The dots are blue.'
p66
sg16
g17
sg18
g19
sg20
g21
sg22
g21
sg23
g24
sg25
g26
sg27
g3
sg28
g3
sg29
S'Target_A_dots_blue_square_above_.png'
p67
sg31
g10
sg32
g33
sg34
g35
sg36
g37
sg38
g41
sg40
g41
sg42
g43
sa(dp68
g2
g7
sg20
g54
sg6
g45
sg8
g9
sg4
S'Target_D_dots_blue_.png'
p69
sg31
g11
sg12
S'Some dots are blue.'
p70
sg32
g33
sg25
g19
sg14
S'Some dots are green.'
p71
sg16
g17
sg23
g24
sg22
g54
sg18
g26
sg42
S'Filler-Target1'
p72
sg29
S'Target_D_dots_blue_.png'
p73
sg34
g57
sg36
g57
sg27
g3
sg28
g3
sa(dp74
g2
g7
sg4
S'Target_A_crosses_blue_triangle_below_.png'
p75
sg6
g7
sg8
g9
sg12
S'The crosses are green.'
p76
sg14
S'The crosses are blue.'
p77
sg16
g17
sg18
g19
sg20
g21
sg22
g21
sg23
S'crosses'
p78
sg25
g26
sg27
g3
sg28
g3
sg29
S'Target_A_crosses_blue_square_above_.png'
p79
sg31
g10
sg32
g33
sg34
g35
sg36
g37
sg38
g41
sg40
g39
sg42
g43
sa(dp80
g2
g3
sg4
S'Target_A_crosses_green_triangle_above_.png'
p81
sg6
g45
sg8
g9
sg12
S'The crosses are red.'
p82
sg14
S'The crosses are green.'
p83
sg16
g17
sg18
g19
sg20
g21
sg22
g21
sg23
g78
sg25
g26
sg27
g3
sg28
g7
sg29
S'Target_A_crosses_blue_square_above_.png'
p84
sg31
g10
sg32
g33
sg34
g35
sg36
g37
sg38
g41
sg40
g41
sg42
g43
sa(dp85
g2
g3
sg4
S'Target_A_crosses_green_triangle_above_.png'
p86
sg6
g45
sg8
g9
sg12
S'All crosses are red.'
p87
sg14
S'All crosses are blue.'
p88
sg16
g17
sg18
g19
sg20
g54
sg22
g54
sg23
g78
sg25
g19
sg27
g3
sg42
S'Filler-Target1'
p89
sg29
S'Target_A_crosses_blue_square_above_.png'
p90
sg31
g10
sg32
g33
sg34
g57
sg36
g57
sg38
g41
sg40
g41
sg28
g7
sa(dp91
g2
g3
sg4
S'Target_A_crosses_green_triangle_below_.png'
p92
sg6
g7
sg8
g9
sg12
S'The crosses are green.'
p93
sg14
S'The crosses are green.'
p94
sg16
g17
sg18
g19
sg20
g21
sg22
g21
sg23
g78
sg25
g26
sg27
g45
sg28
g7
sg29
S'Target_A_crosses_red_square_below_.png'
p95
sg31
g10
sg32
g33
sg34
g35
sg36
g37
sg38
g39
sg40
g39
sg42
g43
sa(dp96
g2
g45
sg4
S'Target_A_crosses_blue_triangle_below_.png'
p97
sg6
g45
sg8
g9
sg12
S'The crosses are red.'
p98
sg14
S'The crosses are blue.'
p99
sg16
g17
sg18
g19
sg20
g21
sg22
g21
sg23
g78
sg25
g26
sg27
g3
sg28
g3
sg29
S'Target_A_crosses_blue_square_below_.png'
p100
sg31
g10
sg32
g33
sg34
g35
sg36
g37
sg38
g39
sg40
g39
sg42
g43
sa(dp101
g2
g45
sg20
g54
sg6
g45
sg8
g9
sg4
S'Target_D_crosses_blue_.png'
p102
sg31
g11
sg12
S'Some crosses are blue.'
p103
sg32
g33
sg25
g19
sg14
S'Some crosses are red.'
p104
sg16
g17
sg23
g78
sg22
g54
sg18
g26
sg42
S'Filler-Target1'
p105
sg29
S'Target_D_crosses_blue_.png'
p106
sg34
g57
sg36
g57
sg27
g3
sg28
g3
sa(dp107
g2
g3
sg20
S'form a circle around the letter'
p108
sg6
g45
sg8
g9
sg4
S'Target_D_dots_red_.png'
p109
sg31
g11
sg12
S'Between 5 and 9 dots form a circle around the letter.'
p110
sg32
g33
sg25
S'Target'
p111
sg14
S'Between 6 and 10 dots form a circle around the letter.'
p112
sg16
S'Collective'
p113
sg23
g24
sg22
g108
sg18
g111
sg28
g45
sg29
S'Target_D_dots_green_.png'
p114
sg34
S'6-10'
p115
sg36
g37
sg27
g7
sg42
S'Target2'
p116
sa(dp117
g2
g7
sg20
g108
sg6
g45
sg8
g9
sg4
S'Target_D_dots_blue_.png'
p118
sg31
g11
sg12
S'Between 5 and 9 dots form a circle around the letter.'
p119
sg32
g33
sg25
g111
sg14
S'Between 6 and 10 dots form a circle around the letter.'
p120
sg16
g113
sg23
g24
sg22
g108
sg18
g111
sg28
g3
sg29
S'Target_D_dots_blue_.png'
p121
sg34
g115
sg36
g37
sg27
g3
sg42
g116
sa(dp122
g2
g7
sg20
g54
sg6
g45
sg8
g9
sg4
S'Target_D_dots_blue_.png'
p123
sg31
g11
sg12
S'Some dots are blue.'
p124
sg32
g33
sg25
g26
sg14
S'Some dots are blue.'
p125
sg16
g17
sg23
g24
sg22
g54
sg18
g26
sg42
S'Filler-Target2'
p126
sg29
S'Target_D_dots_blue_.png'
p127
sg34
g57
sg36
g57
sg27
g3
sg28
g3
sa(dp128
g2
g3
sg20
g108
sg6
g7
sg8
g9
sg4
S'Target_D_dots_green_.png'
p129
sg31
g11
sg12
S'Between 5 and 9 dots form a circle around the letter.'
p130
sg32
g33
sg25
g111
sg14
S'Between 6 and 10 dots form a circle around the letter.'
p131
sg16
g113
sg23
g24
sg22
g108
sg18
g111
sg28
g7
sg29
S'Target_D_dots_red_.png'
p132
sg34
g115
sg36
g37
sg27
g45
sg42
g116
sa(dp133
g2
g7
sg20
g108
sg6
g45
sg8
g9
sg4
S'Target_D_dots_blue_.png'
p134
sg31
g11
sg12
S'Between 5 and 9 dots form a circle around the letter.'
p135
sg32
g33
sg25
g111
sg14
S'Between 6 and 10 dots form a circle around the letter.'
p136
sg16
g113
sg23
g24
sg22
g108
sg18
g111
sg28
g3
sg29
S'Target_D_dots_blue_.png'
p137
sg34
g115
sg36
g37
sg27
g3
sg42
g116
sa(dp138
g2
g7
sg4
S'Target_A_dots_blue_triangle_above_.png'
p139
sg6
g45
sg8
g9
sg12
S'All dots are blue.'
p140
sg14
S'All dots are green.'
p141
sg16
g17
sg18
g26
sg20
g54
sg22
g54
sg23
g24
sg25
g19
sg27
g3
sg42
S'Filler-Target2'
p142
sg29
S'Target_A_dots_blue_square_below_.png'
p143
sg31
g10
sg32
g33
sg34
g57
sg36
g57
sg38
g39
sg40
g41
sg28
g3
sa(dp144
g2
g7
sg20
g108
sg6
g45
sg8
g9
sg4
S'Target_D_crosses_blue_.png'
p145
sg31
g11
sg12
S'Between 5 and 9 crosses form a circle around the letter.'
p146
sg32
g33
sg25
g111
sg14
S'Between 6 and 10 crosses form a circle around the letter.'
p147
sg16
g113
sg23
g78
sg22
g108
sg18
g111
sg28
g3
sg29
S'Target_D_crosses_green_.png'
p148
sg34
g115
sg36
g37
sg27
g7
sg42
g116
sa(dp149
g2
g3
sg20
g108
sg6
g7
sg8
g9
sg4
S'Target_D_crosses_red_.png'
p150
sg31
g11
sg12
S'Between 5 and 9 crosses form a circle around the letter.'
p151
sg32
g33
sg25
g111
sg14
S'Between 6 and 10 crosses form a circle around the letter.'
p152
sg16
g113
sg23
g78
sg22
g108
sg18
g111
sg28
g45
sg29
S'Target_D_crosses_blue_.png'
p153
sg34
g115
sg36
g37
sg27
g3
sg42
g116
sa(dp154
g2
g3
sg20
g54
sg6
g7
sg8
g9
sg4
S'Target_D_crosses_red_.png'
p155
sg31
g11
sg12
S'Some crosses are blue.'
p156
sg32
g33
sg25
g19
sg14
S'Some crosses are blue.'
p157
sg16
g17
sg23
g78
sg22
g54
sg18
g26
sg42
S'Filler-Target2'
p158
sg29
S'Target_D_crosses_blue_.png'
p159
sg34
g57
sg36
g57
sg27
g3
sg28
g45
sa(dp160
g2
g3
sg20
g108
sg6
g3
sg8
g9
sg4
S'Target_D_crosses_green_.png'
p161
sg31
g11
sg12
S'Between 5 and 9 crosses form a circle around the letter.'
p162
sg32
g33
sg25
g111
sg14
S'Between 6 and 10 crosses form a circle around the letter.'
p163
sg16
g113
sg23
g78
sg22
g108
sg18
g111
sg28
g7
sg29
S'Target_D_crosses_green_.png'
p164
sg34
g115
sg36
g37
sg27
g7
sg42
g116
sa(dp165
g2
g45
sg20
g108
sg6
g7
sg8
g9
sg4
S'Target_D_crosses_green_.png'
p166
sg31
g11
sg12
S'Between 5 and 9 crosses form a circle around the letter.'
p167
sg32
g33
sg25
g111
sg14
S'Between 6 and 10 crosses form a circle around the letter.'
p168
sg16
g113
sg23
g78
sg22
g108
sg18
g111
sg28
g7
sg29
S'Target_D_crosses_red_.png'
p169
sg34
g115
sg36
g37
sg27
g45
sg42
g116
sa(dp170
g2
g45
sg4
S'Target_A_crosses_green_triangle_below_.png'
p171
sg6
g7
sg8
g9
sg12
S'All crosses are green.'
p172
sg14
S'All crosses are green.'
p173
sg16
g17
sg18
g19
sg20
g54
sg22
g54
sg23
g78
sg25
g26
sg27
g45
sg42
S'Filler-Target2'
p174
sg29
S'Target_A_crosses_red_square_above_.png'
p175
sg31
g10
sg32
g33
sg34
g57
sg36
g57
sg38
g41
sg40
g39
sg28
g7
sa(dp176
g2
g3
sg4
S'False_A_dots_red_triangle_below_.png'
p177
sg6
g45
sg8
g9
sg12
S'Between 5 and 9 dots are arranged as a square.'
p178
sg14
S'Between 4 and 8 dots are arranged as a triangle.'
p179
sg16
g113
sg18
g19
sg20
S'are arranged as a triangle'
p180
sg22
S'are arranged as a square'
p181
sg23
g24
sg25
g19
sg27
g7
sg28
g45
sg29
S'False_A_dots_green_square_above_.png'
p182
sg31
g10
sg32
g33
sg34
g35
sg36
g37
sg38
g41
sg40
g39
sg42
S'Env-F'
p183
sa(dp184
g2
g3
sg4
S'False_A_dots_green_triangle_below_.png'
p185
sg6
g45
sg8
g9
sg12
S'Between 5 and 9 dots are arranged as a square.'
p186
sg14
S'Between 4 and 8 dots are arranged as a triangle.'
p187
sg16
g113
sg18
g19
sg20
g180
sg22
g181
sg23
g24
sg25
g19
sg27
g3
sg28
g7
sg29
S'False_A_dots_blue_square_below_.png'
p188
sg31
g10
sg32
g33
sg34
g35
sg36
g37
sg38
g39
sg40
g39
sg42
g183
sa(dp189
g2
g3
sg4
S'False_A_dots_green_triangle_below_.png'
p190
sg6
g45
sg8
g9
sg12
S'Some dots are blue.'
p191
sg14
S'Some dots are green.'
p192
sg16
g17
sg18
g26
sg20
g54
sg22
g54
sg23
g24
sg25
g26
sg27
g3
sg42
S'Filler-Env-F'
p193
sg29
S'False_A_dots_blue_square_above_.png'
p194
sg31
g10
sg32
g33
sg34
g57
sg36
g57
sg38
g41
sg40
g39
sg28
g7
sa(dp195
g2
g7
sg4
S'False_A_dots_red_triangle_above_.png'
p196
sg6
g45
sg8
g9
sg12
S'Between 5 and 9 dots are arranged as a square.'
p197
sg14
S'Between 4 and 8 dots are arranged as a triangle.'
p198
sg16
g113
sg18
g19
sg20
g180
sg22
g181
sg23
g24
sg25
g19
sg27
g3
sg28
g45
sg29
S'False_A_dots_blue_square_above_.png'
p199
sg31
g10
sg32
g33
sg34
g35
sg36
g37
sg38
g41
sg40
g41
sg42
g183
sa(dp200
g2
g45
sg4
S'False_A_dots_blue_triangle_below_.png'
p201
sg6
g3
sg8
g9
sg12
S'Between 5 and 9 dots are arranged as a square.'
p202
sg14
S'Between 4 and 8 dots are arranged as a triangle.'
p203
sg16
g113
sg18
g19
sg20
g180
sg22
g181
sg23
g24
sg25
g19
sg27
g7
sg28
g3
sg29
S'False_A_dots_green_square_above_.png'
p204
sg31
g10
sg32
g33
sg34
g35
sg36
g37
sg38
g41
sg40
g39
sg42
g183
sa(dp205
g2
g45
sg20
g54
sg6
g3
sg8
g9
sg4
S'False_D_dots_blue_.png'
p206
sg31
g11
sg12
S'All dots are green.'
p207
sg32
g33
sg25
g26
sg14
S'All dots are blue.'
p208
sg16
g17
sg23
g24
sg22
g54
sg18
g26
sg42
S'Filler-Env-F'
p209
sg29
S'False_D_dots_green_.png'
p210
sg34
g57
sg36
g57
sg27
g7
sg28
g3
sa(dp211
g2
g45
sg4
S'False_A_crosses_green_triangle_above_.png'
p212
sg6
g45
sg8
g9
sg12
S'Between 5 and 9 crosses are arranged as a square.'
p213
sg14
S'Between 4 and 8 crosses are arranged as a triangle.'
p214
sg16
g113
sg18
g19
sg20
g180
sg22
g181
sg23
g78
sg25
g19
sg27
g7
sg28
g7
sg29
S'False_A_crosses_green_square_below_.png'
p215
sg31
g10
sg32
g33
sg34
g35
sg36
g37
sg38
g39
sg40
g41
sg42
g183
sa(dp216
g2
g45
sg4
S'False_A_crosses_blue_triangle_above_.png'
p217
sg6
g7
sg8
g9
sg12
S'Between 5 and 9 crosses are arranged as a square.'
p218
sg14
S'Between 4 and 8 crosses are arranged as a triangle.'
p219
sg16
g113
sg18
g19
sg20
g180
sg22
g181
sg23
g78
sg25
g19
sg27
g3
sg28
g3
sg29
S'False_A_crosses_blue_square_below_.png'
p220
sg31
g10
sg32
g33
sg34
g35
sg36
g37
sg38
g39
sg40
g41
sg42
g183
sa(dp221
g2
g45
sg4
S'False_A_crosses_blue_triangle_above_.png'
p222
sg6
g7
sg8
g9
sg12
S'Some crosses are blue.'
p223
sg14
S'Some crosses are blue.'
p224
sg16
g17
sg18
g26
sg20
g54
sg22
g54
sg23
g78
sg25
g26
sg27
g3
sg42
S'Filler-Env-F'
p225
sg29
S'False_A_crosses_blue_square_below_.png'
p226
sg31
g10
sg32
g33
sg34
g57
sg36
g57
sg38
g39
sg40
g41
sg28
g3
sa(dp227
g2
g7
sg4
S'False_A_crosses_blue_triangle_above_.png'
p228
sg6
g7
sg8
g9
sg12
S'Between 5 and 9 crosses are arranged as a square.'
p229
sg14
S'Between 4 and 8 crosses are arranged as a triangle.'
p230
sg16
g113
sg18
g19
sg20
g180
sg22
g181
sg23
g78
sg25
g19
sg27
g3
sg28
g3
sg29
S'False_A_crosses_blue_square_above_.png'
p231
sg31
g10
sg32
g33
sg34
g35
sg36
g37
sg38
g41
sg40
g41
sg42
g183
sa(dp232
g2
g7
sg4
S'False_A_crosses_blue_triangle_below_.png'
p233
sg6
g7
sg8
g9
sg12
S'Between 5 and 9 crosses are arranged as a square.'
p234
sg14
S'Between 4 and 8 crosses are arranged as a triangle.'
p235
sg16
g113
sg18
g19
sg20
g180
sg22
g181
sg23
g78
sg25
g19
sg27
g3
sg28
g3
sg29
S'False_A_crosses_blue_square_above_.png'
p236
sg31
g10
sg32
g33
sg34
g35
sg36
g37
sg38
g41
sg40
g39
sg42
g183
sa(dp237
g2
g7
sg20
g54
sg6
g7
sg8
g9
sg4
S'False_D_crosses_blue_.png'
p238
sg31
g11
sg12
S'All crosses are blue.'
p239
sg32
g33
sg25
g26
sg14
S'All crosses are blue.'
p240
sg16
g17
sg23
g78
sg22
g54
sg18
g26
sg42
S'Filler-Env-F'
p241
sg29
S'False_D_crosses_blue_.png'
p242
sg34
g57
sg36
g57
sg27
g3
sg28
g3
sa(dp243
g2
g7
sg4
S'True_A_dots_blue_triangle_above_.png'
p244
sg6
g7
sg8
g9
sg12
S'Between 5 and 9 dots are arranged as a square.'
p245
sg14
S'Between 4 and 8 dots are arranged as a triangle.'
p246
sg16
g113
sg18
g26
sg20
g180
sg22
g181
sg23
g24
sg25
g26
sg27
g3
sg28
g3
sg29
S'True_A_dots_blue_square_below_.png'
p247
sg31
g10
sg32
g33
sg34
g35
sg36
g37
sg38
g39
sg40
g41
sg42
S'Env-T'
p248
sa(dp249
g2
g3
sg4
S'True_A_dots_green_triangle_below_.png'
p250
sg6
g3
sg8
g9
sg12
S'Between 5 and 9 dots are arranged as a square.'
p251
sg14
S'Between 4 and 8 dots are arranged as a triangle.'
p252
sg16
g113
sg18
g26
sg20
g180
sg22
g181
sg23
g24
sg25
g26
sg27
g7
sg28
g7
sg29
S'True_A_dots_green_square_above_.png'
p253
sg31
g10
sg32
g33
sg34
g35
sg36
g37
sg38
g41
sg40
g39
sg42
g248
sa(dp254
g2
g3
sg4
S'True_A_dots_green_triangle_above_.png'
p255
sg6
g3
sg8
g9
sg12
S'Some dots are blue.'
p256
sg14
S'Some dots are blue.'
p257
sg16
g17
sg18
g19
sg20
g54
sg22
g54
sg23
g24
sg25
g19
sg27
g7
sg42
S'Filler-Env-T'
p258
sg29
S'True_A_dots_green_square_above_.png'
p259
sg31
g10
sg32
g33
sg34
g57
sg36
g57
sg38
g41
sg40
g41
sg28
g7
sa(dp260
g2
g45
sg4
S'True_A_dots_blue_triangle_above_.png'
p261
sg6
g45
sg8
g9
sg12
S'Between 5 and 9 dots are arranged as a square.'
p262
sg14
S'Between 4 and 8 dots are arranged as a triangle.'
p263
sg16
g113
sg18
g26
sg20
g180
sg22
g181
sg23
g24
sg25
g26
sg27
g7
sg28
g3
sg29
S'True_A_dots_green_square_above_.png'
p264
sg31
g10
sg32
g33
sg34
g35
sg36
g37
sg38
g41
sg40
g41
sg42
g248
sa(dp265
g2
g45
sg4
S'True_A_dots_green_triangle_below_.png'
p266
sg6
g7
sg8
g9
sg12
S'Between 5 and 9 dots are arranged as a square.'
p267
sg14
S'Between 4 and 8 dots are arranged as a triangle.'
p268
sg16
g113
sg18
g26
sg20
g180
sg22
g181
sg23
g24
sg25
g26
sg27
g3
sg28
g7
sg29
S'True_A_dots_blue_square_above_.png'
p269
sg31
g10
sg32
g33
sg34
g35
sg36
g37
sg38
g41
sg40
g39
sg42
g248
sa(dp270
g2
g45
sg20
g54
sg6
g7
sg8
g9
sg4
S'True_D_dots_green_.png'
p271
sg31
g11
sg12
S'All dots are green.'
p272
sg32
g33
sg25
g19
sg14
S'All dots are red.'
p273
sg16
g17
sg23
g24
sg22
g54
sg18
g19
sg42
S'Filler-Env-T'
p274
sg29
S'True_D_dots_blue_.png'
p275
sg34
g57
sg36
g57
sg27
g3
sg28
g7
sa(dp276
g2
g3
sg4
S'True_A_crosses_red_triangle_below_.png'
p277
sg6
g45
sg8
g9
sg12
S'Between 5 and 9 crosses are arranged as a square.'
p278
sg14
S'Between 4 and 8 crosses are arranged as a triangle.'
p279
sg16
g113
sg18
g26
sg20
g180
sg22
g181
sg23
g78
sg25
g26
sg27
g7
sg28
g45
sg29
S'True_A_crosses_green_square_above_.png'
p280
sg31
g10
sg32
g33
sg34
g35
sg36
g37
sg38
g41
sg40
g39
sg42
g248
sa(dp281
g2
g3
sg4
S'True_A_crosses_red_triangle_below_.png'
p282
sg6
g45
sg8
g9
sg12
S'Between 5 and 9 crosses are arranged as a square.'
p283
sg14
S'Between 4 and 8 crosses are arranged as a triangle.'
p284
sg16
g113
sg18
g26
sg20
g180
sg22
g181
sg23
g78
sg25
g26
sg27
g7
sg28
g45
sg29
S'True_A_crosses_green_square_below_.png'
p285
sg31
g10
sg32
g33
sg34
g35
sg36
g37
sg38
g39
sg40
g39
sg42
g248
sa(dp286
g2
g3
sg20
g54
sg6
g45
sg8
g9
sg4
S'True_D_crosses_red_.png'
p287
sg31
g11
sg12
S'All crosses are red.'
p288
sg32
g33
sg25
g19
sg14
S'All crosses are blue.'
p289
sg16
g17
sg23
g78
sg22
g54
sg18
g19
sg42
S'Filler-Env-T'
p290
sg29
S'True_D_crosses_green_.png'
p291
sg34
g57
sg36
g57
sg27
g7
sg28
g45
sa(dp292
g2
g7
sg4
S'True_A_crosses_blue_triangle_below_.png'
p293
sg6
g3
sg8
g9
sg12
S'Between 5 and 9 crosses are arranged as a square.'
p294
sg14
S'Between 4 and 8 crosses are arranged as a triangle.'
p295
sg16
g113
sg18
g26
sg20
g180
sg22
g181
sg23
g78
sg25
g26
sg27
g7
sg28
g3
sg29
S'True_A_crosses_green_square_above_.png'
p296
sg31
g10
sg32
g33
sg34
g35
sg36
g37
sg38
g41
sg40
g39
sg42
g248
sa(dp297
g2
g3
sg4
S'True_A_crosses_green_triangle_above_.png'
p298
sg6
g7
sg8
g9
sg12
S'Between 5 and 9 crosses are arranged as a square.'
p299
sg14
S'Between 4 and 8 crosses are arranged as a triangle.'
p300
sg16
g113
sg18
g26
sg20
g180
sg22
g181
sg23
g78
sg25
g26
sg27
g45
sg28
g7
sg29
S'True_A_crosses_red_square_above_.png'
p301
sg31
g10
sg32
g33
sg34
g35
sg36
g37
sg38
g41
sg40
g41
sg42
g248
sa(dp302
g2
g3
sg20
g54
sg6
g7
sg8
g9
sg4
S'True_D_crosses_green_.png'
p303
sg31
g11
sg12
S'All crosses are green.'
p304
sg32
g33
sg25
g19
sg14
S'All crosses are blue.'
p305
sg16
g17
sg23
g78
sg22
g54
sg18
g19
sg42
S'Filler-Env-T'
p306
sg29
S'True_D_crosses_red_.png'
p307
sg34
g57
sg36
g57
sg27
g45
sg28
g7
sa.