(lp0
(dp1
S'False_Color_1'
p2
S'red'
p3
sS'PREDICATE_1'
p4
S'are'
p5
sS'False_Color_2'
p6
g3
sS'GROUP'
p7
(lp8
S'D'
p9
aS'C'
p10
asS'IMAGE_1'
p11
S'Target_D_dots_green_.png'
p12
sS'IMAGE_TYPE'
p13
g9
sS'S2'
p14
S'Some dots are red.'
p15
sS'STUDY'
p16
S'1'
p17
sS'TRUTH_VALUE_1'
p18
S'True'
p19
sS'S1'
p20
S'Some dots are green.'
p21
sS'PREDICATE_TYPE'
p22
S'Baseline'
p23
sS'SHAPE'
p24
S'dots'
p25
sS'PREDICATE_2'
p26
g5
sS'TRUTH_VALUE_2'
p27
S'False'
p28
sS'Color_1'
p29
S'green'
p30
sS'IMAGE_2'
p31
S'Target_D_dots_blue_.png'
p32
sS'N1'
p33
S'4-8'
p34
sS'N2'
p35
S'5-9'
p36
sS'Color_2'
p37
S'blue'
p38
sS'CONDITION'
p39
S'Target1'
p40
sa(dp41
g2
g30
sg4
g5
sg6
g3
sg7
g8
sg11
S'Target_D_dots_blue_.png'
p42
sg13
g9
sg14
S'Some dots are red.'
p43
sg16
g17
sg18
g19
sg20
S'Some dots are blue.'
p44
sg22
g23
sg24
g25
sg26
g5
sg27
g28
sg29
g38
sg31
S'Target_D_dots_blue_.png'
p45
sg33
g34
sg35
g36
sg37
g38
sg39
g40
sa(dp46
g2
g30
sg11
S'Target_A_dots_blue_triangle_below_.png'
p47
sg6
g3
sg7
g8
sg14
S'All dots are red.'
p48
sg20
S'All dots are green.'
p49
sg22
g23
sg27
g28
sg4
S'X'
p50
sg26
g50
sg24
g25
sg18
g28
sg37
g38
sg39
S'Filler-Target1'
p51
sg31
S'Target_A_dots_blue_square_above_.png'
p52
sg13
g10
sg16
g17
sg33
S'X-X'
p53
sg35
g53
sS'KEY_PRED_2'
p54
S'above'
p55
sS'KEY_PRED_1'
p56
S'below'
p57
sg29
g38
sa(dp58
g2
g3
sg4
g5
sg6
g38
sg7
g8
sg11
S'Target_D_dots_blue_.png'
p59
sg13
g9
sg14
S'Some dots are blue.'
p60
sg16
g17
sg18
g19
sg20
S'Some dots are blue.'
p61
sg22
g23
sg24
g25
sg26
g5
sg27
g28
sg29
g38
sg31
S'Target_D_dots_red_.png'
p62
sg33
g34
sg35
g36
sg37
g3
sg39
g40
sa(dp63
g2
g38
sg4
g5
sg6
g3
sg7
g8
sg11
S'Target_D_dots_green_.png'
p64
sg13
g9
sg14
S'Some dots are red.'
p65
sg16
g17
sg18
g19
sg20
S'Some dots are green.'
p66
sg22
g23
sg24
g25
sg26
g5
sg27
g28
sg29
g30
sg31
S'Target_D_dots_blue_.png'
p67
sg33
g34
sg35
g36
sg37
g38
sg39
g40
sa(dp68
g2
g38
sg4
g50
sg6
g3
sg7
g8
sg11
S'Target_D_dots_green_.png'
p69
sg13
g9
sg14
S'Some dots are red.'
p70
sg16
g17
sg18
g19
sg20
S'Some dots are green.'
p71
sg22
g23
sg24
g25
sg26
g50
sg27
g28
sg39
S'Filler-Target1'
p72
sg31
S'Target_D_dots_blue_.png'
p73
sg33
g53
sg35
g53
sg37
g38
sg29
g30
sa(dp74
g2
g38
sg4
g5
sg6
g30
sg7
g8
sg11
S'Target_D_crosses_red_.png'
p75
sg13
g9
sg14
S'Some crosses are green.'
p76
sg16
g17
sg18
g19
sg20
S'Some crosses are red.'
p77
sg22
g23
sg24
S'crosses'
p78
sg26
g5
sg27
g28
sg29
g3
sg31
S'Target_D_crosses_red_.png'
p79
sg33
g34
sg35
g36
sg37
g3
sg39
g40
sa(dp80
g2
g30
sg4
g5
sg6
g3
sg7
g8
sg11
S'Target_D_crosses_blue_.png'
p81
sg13
g9
sg14
S'Some crosses are red.'
p82
sg16
g17
sg18
g19
sg20
S'Some crosses are blue.'
p83
sg22
g23
sg24
g78
sg26
g5
sg27
g28
sg29
g38
sg31
S'Target_D_crosses_green_.png'
p84
sg33
g34
sg35
g36
sg37
g30
sg39
g40
sa(dp85
g2
g30
sg4
g50
sg6
g3
sg7
g8
sg11
S'Target_D_crosses_blue_.png'
p86
sg13
g9
sg14
S'Some crosses are red.'
p87
sg16
g17
sg18
g28
sg20
S'Some crosses are green.'
p88
sg22
g23
sg24
g78
sg26
g50
sg27
g28
sg39
S'Filler-Target1'
p89
sg31
S'Target_D_crosses_green_.png'
p90
sg33
g53
sg35
g53
sg37
g30
sg29
g38
sa(dp91
g2
g38
sg4
g5
sg6
g3
sg7
g8
sg11
S'Target_D_crosses_green_.png'
p92
sg13
g9
sg14
S'Some crosses are red.'
p93
sg16
g17
sg18
g19
sg20
S'Some crosses are green.'
p94
sg22
g23
sg24
g78
sg26
g5
sg27
g28
sg29
g30
sg31
S'Target_D_crosses_green_.png'
p95
sg33
g34
sg35
g36
sg37
g30
sg39
g40
sa(dp96
g2
g3
sg4
g5
sg6
g3
sg7
g8
sg11
S'Target_D_crosses_blue_.png'
p97
sg13
g9
sg14
S'Some crosses are red.'
p98
sg16
g17
sg18
g19
sg20
S'Some crosses are blue.'
p99
sg22
g23
sg24
g78
sg26
g5
sg27
g28
sg29
g38
sg31
S'Target_D_crosses_blue_.png'
p100
sg33
g34
sg35
g36
sg37
g38
sg39
g40
sa(dp101
g2
g3
sg4
g50
sg6
g3
sg7
g8
sg11
S'Target_D_crosses_blue_.png'
p102
sg13
g9
sg14
S'Some crosses are red.'
p103
sg16
g17
sg18
g19
sg20
S'Some crosses are blue.'
p104
sg22
g23
sg24
g78
sg26
g50
sg27
g28
sg39
S'Filler-Target1'
p105
sg31
S'Target_D_crosses_blue_.png'
p106
sg33
g53
sg35
g53
sg37
g38
sg29
g38
sa(dp107
g2
g38
sg11
S'Target_A_dots_green_triangle_above_.png'
p108
sg6
g30
sg7
g8
sg14
S'Between 5 and 9 dots are arranged as a square.'
p109
sg20
S'Between 4 and 8 dots are arranged as a triangle.'
p110
sg22
S'Collective'
p111
sg27
S'Target'
p112
sg4
S'are arranged as a triangle'
p113
sg26
S'are arranged as a square'
p114
sg24
g25
sg18
g112
sg37
g3
sg29
g30
sg31
S'Target_A_dots_red_square_above_.png'
p115
sg13
g10
sg16
g17
sg33
g34
sg35
g36
sg54
g55
sg56
g55
sg39
S'Target2'
p116
sa(dp117
g2
g3
sg11
S'Target_A_dots_blue_triangle_above_.png'
p118
sg6
g30
sg7
g8
sg14
S'Between 5 and 9 dots are arranged as a square.'
p119
sg20
S'Between 4 and 8 dots are arranged as a triangle.'
p120
sg22
g111
sg27
g112
sg4
g113
sg26
g114
sg24
g25
sg18
g112
sg37
g38
sg29
g38
sg31
S'Target_A_dots_blue_square_below_.png'
p121
sg13
g10
sg16
g17
sg33
g34
sg35
g36
sg54
g57
sg56
g55
sg39
g116
sa(dp122
g2
g3
sg4
g50
sg6
g30
sg7
g8
sg11
S'Target_D_dots_blue_.png'
p123
sg13
g9
sg14
S'Some dots are blue.'
p124
sg16
g17
sg18
g28
sg20
S'Some dots are red.'
p125
sg22
g23
sg24
g25
sg26
g50
sg27
g19
sg39
S'Filler-Target2'
p126
sg31
S'Target_D_dots_blue_.png'
p127
sg33
g53
sg35
g53
sg37
g38
sg29
g38
sa(dp128
g2
g30
sg11
S'Target_A_dots_red_triangle_below_.png'
p129
sg6
g38
sg7
g8
sg14
S'Between 5 and 9 dots are arranged as a square.'
p130
sg20
S'Between 4 and 8 dots are arranged as a triangle.'
p131
sg22
g111
sg27
g112
sg4
g113
sg26
g114
sg24
g25
sg18
g112
sg37
g30
sg29
g3
sg31
S'Target_A_dots_green_square_above_.png'
p132
sg13
g10
sg16
g17
sg33
g34
sg35
g36
sg54
g55
sg56
g57
sg39
g116
sa(dp133
g2
g38
sg11
S'Target_A_dots_red_triangle_below_.png'
p134
sg6
g38
sg7
g8
sg14
S'Between 5 and 9 dots are arranged as a square.'
p135
sg20
S'Between 4 and 8 dots are arranged as a triangle.'
p136
sg22
g111
sg27
g112
sg4
g113
sg26
g114
sg24
g25
sg18
g112
sg37
g30
sg29
g3
sg31
S'Target_A_dots_green_square_above_.png'
p137
sg13
g10
sg16
g17
sg33
g34
sg35
g36
sg54
g55
sg56
g57
sg39
g116
sa(dp138
g2
g38
sg11
S'Target_A_dots_red_triangle_below_.png'
p139
sg6
g38
sg7
g8
sg14
S'All dots are blue.'
p140
sg20
S'All dots are red.'
p141
sg22
g23
sg27
g28
sg4
g50
sg26
g50
sg24
g25
sg18
g19
sg37
g30
sg39
S'Filler-Target2'
p142
sg31
S'Target_A_dots_green_square_above_.png'
p143
sg13
g10
sg16
g17
sg33
g53
sg35
g53
sg54
g55
sg56
g57
sg29
g3
sa(dp144
g2
g3
sg11
S'Target_A_crosses_green_triangle_below_.png'
p145
sg6
g38
sg7
g8
sg14
S'Between 5 and 9 crosses are arranged as a square.'
p146
sg20
S'Between 4 and 8 crosses are arranged as a triangle.'
p147
sg22
g111
sg27
g112
sg4
g113
sg26
g114
sg24
g78
sg18
g112
sg37
g3
sg29
g30
sg31
S'Target_A_crosses_red_square_above_.png'
p148
sg13
g10
sg16
g17
sg33
g34
sg35
g36
sg54
g55
sg56
g57
sg39
g116
sa(dp149
g2
g30
sg11
S'Target_A_crosses_blue_triangle_above_.png'
p150
sg6
g30
sg7
g8
sg14
S'Between 5 and 9 crosses are arranged as a square.'
p151
sg20
S'Between 4 and 8 crosses are arranged as a triangle.'
p152
sg22
g111
sg27
g112
sg4
g113
sg26
g114
sg24
g78
sg18
g112
sg37
g38
sg29
g38
sg31
S'Target_A_crosses_blue_square_below_.png'
p153
sg13
g10
sg16
g17
sg33
g34
sg35
g36
sg54
g57
sg56
g55
sg39
g116
sa(dp154
g2
g30
sg11
S'Target_A_crosses_blue_triangle_below_.png'
p155
sg6
g30
sg7
g8
sg14
S'All crosses are green.'
p156
sg20
S'All crosses are blue.'
p157
sg22
g23
sg27
g28
sg4
g50
sg26
g50
sg24
g78
sg18
g19
sg37
g38
sg39
S'Filler-Target2'
p158
sg31
S'Target_A_crosses_blue_square_above_.png'
p159
sg13
g10
sg16
g17
sg33
g53
sg35
g53
sg54
g55
sg56
g57
sg29
g38
sa(dp160
g2
g3
sg11
S'Target_A_crosses_blue_triangle_below_.png'
p161
sg6
g38
sg7
g8
sg14
S'Between 5 and 9 crosses are arranged as a square.'
p162
sg20
S'Between 4 and 8 crosses are arranged as a triangle.'
p163
sg22
g111
sg27
g112
sg4
g113
sg26
g114
sg24
g78
sg18
g112
sg37
g30
sg29
g38
sg31
S'Target_A_crosses_green_square_above_.png'
p164
sg13
g10
sg16
g17
sg33
g34
sg35
g36
sg54
g55
sg56
g57
sg39
g116
sa(dp165
g2
g38
sg11
S'Target_A_crosses_green_triangle_above_.png'
p166
sg6
g38
sg7
g8
sg14
S'Between 5 and 9 crosses are arranged as a square.'
p167
sg20
S'Between 4 and 8 crosses are arranged as a triangle.'
p168
sg22
g111
sg27
g112
sg4
g113
sg26
g114
sg24
g78
sg18
g112
sg37
g3
sg29
g30
sg31
S'Target_A_crosses_red_square_above_.png'
p169
sg13
g10
sg16
g17
sg33
g34
sg35
g36
sg54
g55
sg56
g55
sg39
g116
sa(dp170
g2
g38
sg11
S'Target_A_crosses_green_triangle_below_.png'
p171
sg6
g38
sg7
g8
sg14
S'All crosses are blue.'
p172
sg20
S'All crosses are blue.'
p173
sg22
g23
sg27
g28
sg4
g50
sg26
g50
sg24
g78
sg18
g28
sg37
g3
sg39
S'Filler-Target2'
p174
sg31
S'Target_A_crosses_red_square_above_.png'
p175
sg13
g10
sg16
g17
sg33
g53
sg35
g53
sg54
g55
sg56
g57
sg29
g30
sa(dp176
g2
g30
sg4
S'form a circle around the letter'
p177
sg6
g38
sg7
g8
sg11
S'False_D_dots_blue_.png'
p178
sg13
g9
sg14
S'Between 5 and 9 dots form a circle around the letter.'
p179
sg16
g17
sg18
g28
sg20
S'Between 6 and 10 dots form a circle around the letter.'
p180
sg22
g111
sg24
g25
sg26
g177
sg27
g28
sg29
g38
sg31
S'False_D_dots_green_.png'
p181
sg33
S'6-10'
p182
sg35
g36
sg37
g30
sg39
S'Env-F'
p183
sa(dp184
g2
g38
sg4
g177
sg6
g30
sg7
g8
sg11
S'False_D_dots_red_.png'
p185
sg13
g9
sg14
S'Between 5 and 9 dots form a circle around the letter.'
p186
sg16
g17
sg18
g28
sg20
S'Between 6 and 10 dots form a circle around the letter.'
p187
sg22
g111
sg24
g25
sg26
g177
sg27
g28
sg29
g3
sg31
S'False_D_dots_red_.png'
p188
sg33
g182
sg35
g36
sg37
g3
sg39
g183
sa(dp189
g2
g38
sg4
g50
sg6
g30
sg7
g8
sg11
S'False_D_dots_red_.png'
p190
sg13
g9
sg14
S'All dots are red.'
p191
sg16
g17
sg18
g19
sg20
S'All dots are red.'
p192
sg22
g23
sg24
g25
sg26
g50
sg27
g19
sg39
S'Filler-Env-F'
p193
sg31
S'False_D_dots_red_.png'
p194
sg33
g53
sg35
g53
sg37
g3
sg29
g3
sa(dp195
g2
g30
sg4
g177
sg6
g3
sg7
g8
sg11
S'False_D_dots_red_.png'
p196
sg13
g9
sg14
S'Between 5 and 9 dots form a circle around the letter.'
p197
sg16
g17
sg18
g28
sg20
S'Between 6 and 10 dots form a circle around the letter.'
p198
sg22
g111
sg24
g25
sg26
g177
sg27
g28
sg29
g3
sg31
S'False_D_dots_green_.png'
p199
sg33
g182
sg35
g36
sg37
g30
sg39
g183
sa(dp200
g2
g30
sg4
g177
sg6
g38
sg7
g8
sg11
S'False_D_dots_blue_.png'
p201
sg13
g9
sg14
S'Between 5 and 9 dots form a circle around the letter.'
p202
sg16
g17
sg18
g28
sg20
S'Between 6 and 10 dots form a circle around the letter.'
p203
sg22
g111
sg24
g25
sg26
g177
sg27
g28
sg29
g38
sg31
S'False_D_dots_red_.png'
p204
sg33
g182
sg35
g36
sg37
g3
sg39
g183
sa(dp205
g2
g30
sg4
g50
sg6
g38
sg7
g8
sg11
S'False_D_dots_blue_.png'
p206
sg13
g9
sg14
S'All dots are red.'
p207
sg16
g17
sg18
g19
sg20
S'All dots are blue.'
p208
sg22
g23
sg24
g25
sg26
g50
sg27
g19
sg39
S'Filler-Env-F'
p209
sg31
S'False_D_dots_red_.png'
p210
sg33
g53
sg35
g53
sg37
g3
sg29
g38
sa(dp211
g2
g38
sg4
g177
sg6
g30
sg7
g8
sg11
S'False_D_crosses_green_.png'
p212
sg13
g9
sg14
S'Between 5 and 9 crosses form a circle around the letter.'
p213
sg16
g17
sg18
g28
sg20
S'Between 6 and 10 crosses form a circle around the letter.'
p214
sg22
g111
sg24
g78
sg26
g177
sg27
g28
sg29
g30
sg31
S'False_D_crosses_blue_.png'
p215
sg33
g182
sg35
g36
sg37
g38
sg39
g183
sa(dp216
g2
g3
sg4
g177
sg6
g38
sg7
g8
sg11
S'False_D_crosses_blue_.png'
p217
sg13
g9
sg14
S'Between 5 and 9 crosses form a circle around the letter.'
p218
sg16
g17
sg18
g28
sg20
S'Between 6 and 10 crosses form a circle around the letter.'
p219
sg22
g111
sg24
g78
sg26
g177
sg27
g28
sg29
g38
sg31
S'False_D_crosses_red_.png'
p220
sg33
g182
sg35
g36
sg37
g3
sg39
g183
sa(dp221
g2
g3
sg4
g50
sg6
g38
sg7
g8
sg11
S'False_D_crosses_blue_.png'
p222
sg13
g9
sg14
S'All crosses are red.'
p223
sg16
g17
sg18
g19
sg20
S'All crosses are blue.'
p224
sg22
g23
sg24
g78
sg26
g50
sg27
g19
sg39
S'Filler-Env-F'
p225
sg31
S'False_D_crosses_red_.png'
p226
sg33
g53
sg35
g53
sg37
g3
sg29
g38
sa(dp227
g2
g38
sg4
g177
sg6
g3
sg7
g8
sg11
S'False_D_crosses_red_.png'
p228
sg13
g9
sg14
S'Between 5 and 9 crosses form a circle around the letter.'
p229
sg16
g17
sg18
g28
sg20
S'Between 6 and 10 crosses form a circle around the letter.'
p230
sg22
g111
sg24
g78
sg26
g177
sg27
g28
sg29
g3
sg31
S'False_D_crosses_green_.png'
p231
sg33
g182
sg35
g36
sg37
g30
sg39
g183
sa(dp232
g2
g38
sg4
g177
sg6
g30
sg7
g8
sg11
S'False_D_crosses_red_.png'
p233
sg13
g9
sg14
S'Between 5 and 9 crosses form a circle around the letter.'
p234
sg16
g17
sg18
g28
sg20
S'Between 6 and 10 crosses form a circle around the letter.'
p235
sg22
g111
sg24
g78
sg26
g177
sg27
g28
sg29
g3
sg31
S'False_D_crosses_blue_.png'
p236
sg33
g182
sg35
g36
sg37
g38
sg39
g183
sa(dp237
g2
g38
sg4
g50
sg6
g30
sg7
g8
sg11
S'False_D_crosses_red_.png'
p238
sg13
g9
sg14
S'All crosses are blue.'
p239
sg16
g17
sg18
g19
sg20
S'All crosses are red.'
p240
sg22
g23
sg24
g78
sg26
g50
sg27
g19
sg39
S'Filler-Env-F'
p241
sg31
S'False_D_crosses_blue_.png'
p242
sg33
g53
sg35
g53
sg37
g38
sg29
g3
sa(dp243
g2
g30
sg4
g177
sg6
g38
sg7
g8
sg11
S'True_D_dots_red_.png'
p244
sg13
g9
sg14
S'Between 5 and 9 dots form a circle around the letter.'
p245
sg16
g17
sg18
g19
sg20
S'Between 6 and 10 dots form a circle around the letter.'
p246
sg22
g111
sg24
g25
sg26
g177
sg27
g19
sg29
g3
sg31
S'True_D_dots_red_.png'
p247
sg33
g182
sg35
g36
sg37
g3
sg39
S'Env-T'
p248
sa(dp249
g2
g3
sg4
g177
sg6
g3
sg7
g8
sg11
S'True_D_dots_green_.png'
p250
sg13
g9
sg14
S'Between 5 and 9 dots form a circle around the letter.'
p251
sg16
g17
sg18
g19
sg20
S'Between 6 and 10 dots form a circle around the letter.'
p252
sg22
g111
sg24
g25
sg26
g177
sg27
g19
sg29
g30
sg31
S'True_D_dots_blue_.png'
p253
sg33
g182
sg35
g36
sg37
g38
sg39
g248
sa(dp254
g2
g3
sg11
S'True_A_dots_green_triangle_below_.png'
p255
sg6
g3
sg7
g8
sg14
S'Some dots are red.'
p256
sg20
S'Some dots are red.'
p257
sg22
g23
sg27
g28
sg4
g50
sg26
g50
sg24
g25
sg18
g28
sg37
g38
sg39
S'Filler-Env-T'
p258
sg31
S'True_A_dots_blue_square_below_.png'
p259
sg13
g10
sg16
g17
sg33
g53
sg35
g53
sg54
g57
sg56
g57
sg29
g30
sa(dp260
g2
g3
sg4
g177
sg6
g3
sg7
g8
sg11
S'True_D_dots_green_.png'
p261
sg13
g9
sg14
S'Between 5 and 9 dots form a circle around the letter.'
p262
sg16
g17
sg18
g19
sg20
S'Between 6 and 10 dots form a circle around the letter.'
p263
sg22
g111
sg24
g25
sg26
g177
sg27
g19
sg29
g30
sg31
S'True_D_dots_green_.png'
p264
sg33
g182
sg35
g36
sg37
g30
sg39
g248
sa(dp265
g2
g30
sg4
g177
sg6
g38
sg7
g8
sg11
S'True_D_dots_blue_.png'
p266
sg13
g9
sg14
S'Between 5 and 9 dots form a circle around the letter.'
p267
sg16
g17
sg18
g19
sg20
S'Between 6 and 10 dots form a circle around the letter.'
p268
sg22
g111
sg24
g25
sg26
g177
sg27
g19
sg29
g38
sg31
S'True_D_dots_green_.png'
p269
sg33
g182
sg35
g36
sg37
g30
sg39
g248
sa(dp270
g2
g30
sg11
S'True_A_dots_blue_triangle_below_.png'
p271
sg6
g38
sg7
g8
sg14
S'Some dots are blue.'
p272
sg20
S'Some dots are green.'
p273
sg22
g23
sg27
g28
sg4
g50
sg26
g50
sg24
g25
sg18
g28
sg37
g30
sg39
S'Filler-Env-T'
p274
sg31
S'True_A_dots_green_square_above_.png'
p275
sg13
g10
sg16
g17
sg33
g53
sg35
g53
sg54
g55
sg56
g57
sg29
g38
sa(dp276
g2
g3
sg4
g177
sg6
g30
sg7
g8
sg11
S'True_D_crosses_blue_.png'
p277
sg13
g9
sg14
S'Between 5 and 9 crosses form a circle around the letter.'
p278
sg16
g17
sg18
g19
sg20
S'Between 6 and 10 crosses form a circle around the letter.'
p279
sg22
g111
sg24
g78
sg26
g177
sg27
g19
sg29
g38
sg31
S'True_D_crosses_blue_.png'
p280
sg33
g182
sg35
g36
sg37
g38
sg39
g248
sa(dp281
g2
g38
sg4
g177
sg6
g30
sg7
g8
sg11
S'True_D_crosses_green_.png'
p282
sg13
g9
sg14
S'Between 5 and 9 crosses form a circle around the letter.'
p283
sg16
g17
sg18
g19
sg20
S'Between 6 and 10 crosses form a circle around the letter.'
p284
sg22
g111
sg24
g78
sg26
g177
sg27
g19
sg29
g30
sg31
S'True_D_crosses_red_.png'
p285
sg33
g182
sg35
g36
sg37
g3
sg39
g248
sa(dp286
g2
g38
sg11
S'True_A_crosses_green_triangle_below_.png'
p287
sg6
g30
sg7
g8
sg14
S'Some crosses are green.'
p288
sg20
S'Some crosses are blue.'
p289
sg22
g23
sg27
g28
sg4
g50
sg26
g50
sg24
g78
sg18
g28
sg37
g3
sg39
S'Filler-Env-T'
p290
sg31
S'True_A_crosses_red_square_above_.png'
p291
sg13
g10
sg16
g17
sg33
g53
sg35
g53
sg54
g55
sg56
g57
sg29
g30
sa(dp292
g2
g30
sg4
g177
sg6
g38
sg7
g8
sg11
S'True_D_crosses_red_.png'
p293
sg13
g9
sg14
S'Between 5 and 9 crosses form a circle around the letter.'
p294
sg16
g17
sg18
g19
sg20
S'Between 6 and 10 crosses form a circle around the letter.'
p295
sg22
g111
sg24
g78
sg26
g177
sg27
g19
sg29
g3
sg31
S'True_D_crosses_green_.png'
p296
sg33
g182
sg35
g36
sg37
g30
sg39
g248
sa(dp297
g2
g30
sg4
g177
sg6
g3
sg7
g8
sg11
S'True_D_crosses_red_.png'
p298
sg13
g9
sg14
S'Between 5 and 9 crosses form a circle around the letter.'
p299
sg16
g17
sg18
g19
sg20
S'Between 6 and 10 crosses form a circle around the letter.'
p300
sg22
g111
sg24
g78
sg26
g177
sg27
g19
sg29
g3
sg31
S'True_D_crosses_green_.png'
p301
sg33
g182
sg35
g36
sg37
g30
sg39
g248
sa(dp302
g2
g30
sg4
g50
sg6
g3
sg7
g8
sg11
S'True_D_crosses_red_.png'
p303
sg13
g9
sg14
S'All crosses are red.'
p304
sg16
g17
sg18
g28
sg20
S'All crosses are green.'
p305
sg22
g23
sg24
g78
sg26
g50
sg27
g28
sg39
S'Filler-Env-T'
p306
sg31
S'True_D_crosses_green_.png'
p307
sg33
g53
sg35
g53
sg37
g30
sg29
g3
sa.